Certificate:
    Data:
        Version: 3 (0x2)
        Serial Number: 3 (0x3)
        Signature Algorithm: sha256WithRSAEncryption
        Issuer: C=AU, ST=Some-State, O=Internet Widgits Pty Ltd
        Validity
            Not Before: Jan 19 18:10:24 2024 GMT
            Not After : Jan 18 18:10:24 2025 GMT
        Subject: C=AU, ST=Some-State, O=Internet Widgits Pty Ltd, CN=collate
        Subject Public Key Info:
            Public Key Algorithm: rsaEncryption
                Public-Key: (4096 bit)
                Modulus:
                    00:e8:bc:75:7f:da:5d:14:70:f9:a4:54:b6:59:19:
                    db:85:42:19:69:ad:c2:cd:39:2d:3c:f4:ec:df:ac:
                    c5:1f:ce:b5:c0:5e:d7:ab:fc:c7:90:01:27:2f:a5:
                    10:1e:eb:56:7c:77:91:2f:21:34:71:27:dc:dd:1e:
                    15:ca:d0:e4:ca:63:7e:09:47:a4:ff:03:58:50:ee:
                    12:a9:97:88:bd:96:60:9f:76:21:91:a3:4c:60:b4:
                    7f:08:f0:b2:0f:2f:51:2b:df:80:66:01:c4:11:ba:
                    51:40:32:eb:59:d7:18:d2:28:53:40:69:1b:35:88:
                    e2:8c:5a:43:f1:77:ed:3e:ee:31:ae:7e:e9:99:79:
                    f8:db:4f:a3:2e:f2:de:8c:ab:77:85:a0:91:e3:5a:
                    60:f3:9e:ab:b3:d8:36:4a:19:6e:41:c6:39:84:1d:
                    c4:82:9a:42:5d:8a:af:4a:fc:c8:0b:de:45:ce:56:
                    be:0a:71:71:1e:8d:b9:40:1c:85:0b:de:29:d3:69:
                    4e:cb:7f:98:f7:24:a3:50:69:e3:1d:90:ab:37:3d:
                    8f:58:d1:14:21:a9:1b:51:00:bd:88:42:d4:14:38:
                    47:0a:24:5d:2b:e6:f4:3e:95:8f:8e:22:3a:af:27:
                    0a:1e:0f:05:e7:8a:22:c3:4b:fb:ee:9e:a4:d1:65:
                    1d:15:d2:91:b3:6f:1a:ed:46:75:7f:c2:ad:e6:e3:
                    f8:79:9e:1b:05:64:51:89:08:a4:b6:ae:e2:66:94:
                    96:4f:0f:e7:07:d4:53:9b:b3:97:d8:55:05:f0:c6:
                    db:c1:99:8f:c0:29:d4:e9:f8:92:4a:94:43:2e:66:
                    e5:bf:66:af:60:4d:b3:65:ed:e5:39:9b:cb:09:7d:
                    2e:bd:7b:89:de:c5:3b:13:6f:9a:90:95:f2:1c:fd:
                    c7:bd:7a:a0:1a:12:9a:71:30:cc:19:02:f9:8c:93:
                    ab:84:05:dd:1c:63:cb:37:18:7e:6b:63:37:c6:75:
                    8f:57:d9:75:1c:90:e3:51:0b:a0:2c:48:f4:a9:b7:
                    77:5c:e6:d4:65:03:02:17:0d:62:04:95:39:25:65:
                    26:65:df:08:1e:5a:f8:ef:e7:56:f8:13:d1:db:73:
                    28:8c:84:0d:40:9f:04:4f:d5:73:4e:17:f5:89:f6:
                    87:c1:fd:b1:b7:4e:77:60:43:bf:42:56:f9:5d:5f:
                    2a:2e:9a:bd:2f:10:a0:d9:b6:9a:e6:5d:6e:f1:9b:
                    f1:3a:78:4b:40:98:81:72:bd:9d:b3:e0:02:8e:a4:
                    a1:ff:9a:15:21:ff:c1:ee:05:89:9e:6c:bc:10:85:
                    f0:5c:66:ab:a2:ad:0e:df:9c:24:f8:7b:4f:36:1d:
                    7f:0c:83
                Exponent: 65537 (0x10001)
        X509v3 extensions:
            X509v3 Subject Alternative Name: 
                DNS:collate, DNS:*.collate
            X509v3 Certificate Policies: 
                Policy: 1.2.3.4
            X509v3 Subject Key Identifier: 
                15:24:19:EB:32:F8:5A:83:A7:DB:60:2A:B2:FD:BB:6E:8F:AB:A3:79
    Signature Algorithm: sha256WithRSAEncryption
    Signature Value:
        5f:2a:51:4f:18:2f:7d:7c:66:9a:0c:b5:fc:07:2d:28:90:c3:
        5e:43:8d:7d:69:08:d2:4d:6c:a8:c6:46:29:85:06:42:48:15:
        9c:67:78:eb:85:20:db:b0:e5:5c:57:82:57:20:b1:34:be:c2:
        3a:b0:b7:0a:e1:5d:14:f6:86:ba:41:70:e8:80:fa:bd:46:28:
        ce:c6:64:cb:2d:a9:8e:bc:fc:82:6a:e8:6b:a2:63:18:74:0a:
        da:df:7a:db:cb:b4:c1:76:b9:27:5c:5c:a2:af:0e:b4:38:8a:
        4e:6f:7d:cc:2f:3b:0b:b2:82:59:a7:87:ac:29:d4:75:1e:67:
        dc:4e:5e:6b:9a:ff:45:fe:bf:ee:05:ee:76:5e:a6:9c:01:23:
        96:d4:67:8d:41:60:ea:70:b3:98:d6:b8:6c:14:5c:75:b2:b0:
        76:b4:1d:12:1a:9c:25:20:13:96:9a:53:44:ce:b9:71:e5:60:
        7c:22:52:40:e5:23:12:4b:6e:e2:7f:11:fd:80:60:4f:05:23:
        04:b8:b2:de:c1:f4:7d:98:bf:a3:20:2e:d4:c6:39:78:cf:ed:
        3c:f5:fe:69:23:24:8b:bf:d6:80:d3:dc:cf:01:92:aa:51:dc:
        eb:4c:4e:94:5d:bb:7a:34:41:a1:6c:5a:c2:3a:53:6d:14:f5:
        d3:d4:b7:9d:b6:71:d4:79:97:d5:58:d7:3c:d5:98:d2:3d:68:
        5b:66:d0:c8:19:23:2c:83:d7:b2:5e:be:f3:aa:1e:10:43:4b:
        01:dc:34:be:42:40:94:bb:7b:cd:e6:a5:38:b5:3a:6e:a5:9f:
        35:06:cc:06:d9:8e:18:b6:7f:d0:9c:6b:23:be:ce:74:53:99:
        0a:8d:2d:bf:4f:e8:92:e8:54:89:ad:8f:dc:1e:f8:de:1d:29:
        2e:f8:70:91:b1:73:53:0a:30:2c:fb:01:5e:fb:cb:1c:9e:76:
        63:2f:5e:b3:a9:a7:26:f9:ae:15:2a:9e:3b:4a:a0:99:ee:84:
        60:20:f6:89:a0:29:7d:b7:be:ad:4a:91:1e:34:ef:a3:f1:7b:
        ff:cc:27:26:f4:01:47:6c:40:5a:0c:85:c7:97:65:6d:48:af:
        d3:98:3c:5e:02:0f:90:a8:c4:43:4f:c6:31:70:a5:9a:fd:a4:
        af:1a:ab:cb:f0:6c:c2:0c:8d:49:26:aa:ba:da:fd:43:5d:4a:
        ec:3f:b5:c0:b3:bd:36:28:23:e8:24:28:94:1e:a6:71:26:80:
        f5:e2:30:03:d9:4c:dd:b7:a8:78:80:6b:fa:87:98:89:bb:b2:
        b5:66:cb:6c:45:eb:99:16:4b:97:f9:9b:c1:c8:f0:a4:a5:43:
        0e:84:d6:b8:2c:41:c7:46
-----BEGIN CERTIFICATE-----
MIIFaTCCA1GgAwIBAgIBAzANBgkqhkiG9w0BAQsFADBFMQswCQYDVQQGEwJBVTET
MBEGA1UECAwKU29tZS1TdGF0ZTEhMB8GA1UECgwYSW50ZXJuZXQgV2lkZ2l0cyBQ
dHkgTHRkMB4XDTI0MDExOTE4MTAyNFoXDTI1MDExODE4MTAyNFowVzELMAkGA1UE
BhMCQVUxEzARBgNVBAgMClNvbWUtU3RhdGUxITAfBgNVBAoMGEludGVybmV0IFdp
ZGdpdHMgUHR5IEx0ZDEQMA4GA1UEAwwHY29sbGF0ZTCCAiIwDQYJKoZIhvcNAQEB
BQADggIPADCCAgoCggIBAOi8dX/aXRRw+aRUtlkZ24VCGWmtws05LTz07N+sxR/O
tcBe16v8x5ABJy+lEB7rVnx3kS8hNHEn3N0eFcrQ5MpjfglHpP8DWFDuEqmXiL2W
YJ92IZGjTGC0fwjwsg8vUSvfgGYBxBG6UUAy61nXGNIoU0BpGzWI4oxaQ/F37T7u
Ma5+6Zl5+NtPoy7y3oyrd4WgkeNaYPOeq7PYNkoZbkHGOYQdxIKaQl2Kr0r8yAve
Rc5WvgpxcR6NuUAchQveKdNpTst/mPcko1Bp4x2Qqzc9j1jRFCGpG1EAvYhC1BQ4
RwokXSvm9D6Vj44iOq8nCh4PBeeKIsNL++6epNFlHRXSkbNvGu1GdX/Crebj+Hme
GwVkUYkIpLau4maUlk8P5wfUU5uzl9hVBfDG28GZj8Ap1On4kkqUQy5m5b9mr2BN
s2Xt5Tmbywl9Lr17id7FOxNvmpCV8hz9x716oBoSmnEwzBkC+YyTq4QF3RxjyzcY
fmtjN8Z1j1fZdRyQ41ELoCxI9Km3d1zm1GUDAhcNYgSVOSVlJmXfCB5a+O/nVvgT
0dtzKIyEDUCfBE/Vc04X9Yn2h8H9sbdOd2BDv0JW+V1fKi6avS8QoNm2muZdbvGb
8Tp4S0CYgXK9nbPgAo6kof+aFSH/we4FiZ5svBCF8Fxmq6KtDt+cJPh7TzYdfwyD
AgMBAAGjUjBQMB0GA1UdEQQWMBSCB2NvbGxhdGWCCSouY29sbGF0ZTAQBgNVHSAE
CTAHMAUGAyoDBDAdBgNVHQ4EFgQUFSQZ6zL4WoOn22Aqsv27bo+ro3kwDQYJKoZI
hvcNAQELBQADggIBAF8qUU8YL318ZpoMtfwHLSiQw15DjX1pCNJNbKjGRimFBkJI
FZxneOuFINuw5VxXglcgsTS+wjqwtwrhXRT2hrpBcOiA+r1GKM7GZMstqY68/IJq
6GuiYxh0CtrfetvLtMF2uSdcXKKvDrQ4ik5vfcwvOwuyglmnh6wp1HUeZ9xOXmua
/0X+v+4F7nZeppwBI5bUZ41BYOpws5jWuGwUXHWysHa0HRIanCUgE5aaU0TOuXHl
YHwiUkDlIxJLbuJ/Ef2AYE8FIwS4st7B9H2Yv6MgLtTGOXjP7Tz1/mkjJIu/1oDT
3M8BkqpR3OtMTpRdu3o0QaFsWsI6U20U9dPUt522cdR5l9VY1zzVmNI9aFtm0MgZ
IyyD17JevvOqHhBDSwHcNL5CQJS7e83mpTi1Om6lnzUGzAbZjhi2f9CcayO+znRT
mQqNLb9P6JLoVImtj9we+N4dKS74cJGxc1MKMCz7AV77yxyedmMvXrOppyb5rhUq
njtKoJnuhGAg9omgKX23vq1KkR4076Pxe//MJyb0AUdsQFoMhceXZW1Ir9OYPF4C
D5CoxENPxjFwpZr9pK8aq8vwbMIMjUkmqrra/UNdSuw/tcCzvTYoI+gkKJQepnEm
gPXiMAPZTN23qHiAa/qHmIm7srVmy2xF65kWS5f5m8HI8KSlQw6E1rgsQcdG
-----END CERTIFICATE-----
