Certificate:
    Data:
        Version: 3 (0x2)
        Serial Number: 5 (0x5)
        Signature Algorithm: sha256WithRSAEncryption
        Issuer: C=AU, ST=Some-State, O=Internet Widgits Pty Ltd
        Validity
            Not Before: Jan 19 18:20:34 2024 GMT
            Not After : Jan 18 18:20:34 2025 GMT
        Subject: C=AU, ST=Some-State, O=Internet Widgits Pty Ltd
        Subject Public Key Info:
            Public Key Algorithm: rsaEncryption
                Public-Key: (2048 bit)
                Modulus:
                    00:e8:76:ad:2c:8f:c3:2d:f5:2a:e0:23:4a:69:36:
                    bd:ce:79:05:c8:ab:b1:a5:65:58:f7:3d:30:03:7f:
                    e4:8f:a0:52:77:f1:26:30:2a:dd:8b:df:cf:6b:43:
                    db:0b:7d:a0:4f:3b:ae:c4:ac:b9:97:ab:ce:91:9b:
                    9b:d1:2a:5b:69:94:25:78:e4:f4:88:3b:9e:6c:b3:
                    fc:81:c0:9b:83:49:7d:18:74:de:31:fa:40:50:ee:
                    57:90:bc:5f:c1:6c:68:29:1c:f3:eb:c5:04:df:80:
                    fa:b1:26:ba:6c:7d:42:db:12:10:a2:8f:ec:b0:1b:
                    d4:b3:33:99:65:63:e0:90:25:5b:a5:2d:c5:93:1a:
                    9c:c1:bb:be:2c:de:43:e2:fa:7a:16:6d:d2:eb:3e:
                    b7:d7:ed:c6:2f:67:50:88:cc:ae:e5:44:7e:78:17:
                    e7:6c:a6:93:36:f2:f7:53:05:f8:2f:df:77:50:a0:
                    90:ce:f1:68:e1:17:a5:b3:23:8e:1d:8c:81:34:a4:
                    95:40:65:ea:b5:d8:28:a0:c2:f6:88:40:5c:33:54:
                    30:b1:dc:0c:42:eb:1e:67:1f:a5:29:87:32:a8:84:
                    06:3e:8a:f6:72:f8:c0:cc:62:98:24:b3:24:c9:18:
                    d9:e9:51:77:5c:28:fc:d8:ac:e2:8a:94:64:d2:99:
                    75:cf
                Exponent: 65537 (0x10001)
        X509v3 extensions:
            X509v3 Subject Alternative Name: 
                DNS:collate, DNS:*.collate
            X509v3 Certificate Policies: 
                Policy: 1.2.3.4
            X509v3 Subject Key Identifier: 
                60:C9:A4:52:4D:BC:8F:B5:F7:31:EB:17:D5:63:EC:EF:21:CF:7D:2E
            X509v3 Authority Key Identifier: 
                15:24:19:EB:32:F8:5A:83:A7:DB:60:2A:B2:FD:BB:6E:8F:AB:A3:79
    Signature Algorithm: sha256WithRSAEncryption
    Signature Value:
        c8:4e:1f:be:0e:2b:9d:26:17:43:3d:0b:f1:22:b6:4b:c3:84:
        3f:ad:b2:ca:b4:30:14:3f:b1:a2:70:53:23:17:20:23:67:af:
        98:00:34:41:88:5f:8a:a7:4f:4f:6f:80:75:30:b8:33:ce:33:
        fc:d5:96:d6:e8:bf:90:03:d8:67:ff:69:37:f8:28:7e:ce:da:
        e8:d2:93:21:5a:49:76:d0:68:c9:5e:e3:3a:c9:b8:a3:bb:38:
        36:3c:92:5c:88:70:38:c6:ff:c9:02:51:a8:18:79:09:f5:2b:
        59:6a:55:7d:23:5a:47:66:d7:6c:82:48:b7:14:f4:90:b1:8e:
        97:1a:2b:64:91:f7:65:91:12:5e:90:dc:44:8e:ab:75:f9:62:
        63:85:05:78:ca:5d:47:3a:b2:77:00:5f:ad:5f:92:1e:24:9d:
        b2:44:3b:79:6a:a4:f7:b3:13:7f:d1:a1:d1:c6:08:a2:f9:69:
        4a:c4:91:f4:8a:26:e2:dc:ff:21:b5:01:ca:bd:6c:51:68:53:
        56:41:b9:a4:5a:6b:f2:fa:d2:fb:87:ff:84:9a:75:c3:39:a2:
        e2:da:d2:77:b1:9e:ee:61:df:a7:20:66:2e:a0:93:2f:fb:9f:
        b6:fe:c2:4d:a9:13:e0:34:22:db:1d:4c:69:3a:01:3b:3b:0e:
        7c:b0:1b:be:01:a5:54:fd:e0:c0:43:c0:95:ae:c4:7b:32:6a:
        a6:f1:02:ba:ae:51:4e:07:59:79:1d:98:30:98:e9:69:cb:7c:
        d0:16:91:30:24:a2:1d:51:c4:6f:0a:4f:59:47:af:94:34:a2:
        4a:84:72:b6:7b:fb:d8:1a:37:fc:2e:b5:7e:4b:b2:ca:d5:ec:
        b2:bd:92:4d:51:d5:6a:7e:d0:6f:a6:01:7b:31:81:cb:b7:a3:
        6b:95:a1:d9:2a:57:b0:eb:1d:72:e6:35:0b:77:dd:bf:0c:49:
        a9:13:32:58:ed:21:60:0a:bc:bb:7f:9d:ef:db:1e:09:03:87:
        a3:d8:57:a9:87:05:c0:b3:cb:1f:0f:4e:a8:07:40:16:ea:8d:
        b0:ed:dd:25:a1:67:e1:d4:cf:9a:ed:dd:7c:ac:c0:a9:ef:7d:
        24:61:6e:64:d2:04:0a:65:ee:48:f4:b8:92:64:58:61:f9:7d:
        93:8d:b8:38:0a:35:0e:0c:ef:56:4b:41:13:cb:bf:8d:de:95:
        e2:9a:eb:4d:b7:7c:51:a7:6f:8f:7c:7a:1f:e5:53:2a:7e:09:
        61:cf:33:9b:21:ce:36:07:0c:98:ad:d6:ca:9e:c7:c1:52:56:
        e6:58:a6:1e:dc:96:ea:05:4f:3b:04:79:84:2f:83:fe:c5:74:
        8e:a7:41:e8:f5:f0:d4:81
-----BEGIN CERTIFICATE-----
MIIEeDCCAmCgAwIBAgIBBTANBgkqhkiG9w0BAQsFADBFMQswCQYDVQQGEwJBVTET
MBEGA1UECAwKU29tZS1TdGF0ZTEhMB8GA1UECgwYSW50ZXJuZXQgV2lkZ2l0cyBQ
dHkgTHRkMB4XDTI0MDExOTE4MjAzNFoXDTI1MDExODE4MjAzNFowRTELMAkGA1UE
BhMCQVUxEzARBgNVBAgMClNvbWUtU3RhdGUxITAfBgNVBAoMGEludGVybmV0IFdp
ZGdpdHMgUHR5IEx0ZDCCASIwDQYJKoZIhvcNAQEBBQADggEPADCCAQoCggEBAOh2
rSyPwy31KuAjSmk2vc55BcirsaVlWPc9MAN/5I+gUnfxJjAq3Yvfz2tD2wt9oE87
rsSsuZerzpGbm9EqW2mUJXjk9Ig7nmyz/IHAm4NJfRh03jH6QFDuV5C8X8FsaCkc
8+vFBN+A+rEmumx9QtsSEKKP7LAb1LMzmWVj4JAlW6UtxZManMG7vizeQ+L6ehZt
0us+t9ftxi9nUIjMruVEfngX52ymkzby91MF+C/fd1CgkM7xaOEXpbMjjh2MgTSk
lUBl6rXYKKDC9ohAXDNUMLHcDELrHmcfpSmHMqiEBj6K9nL4wMximCSzJMkY2elR
d1wo/Nis4oqUZNKZdc8CAwEAAaNzMHEwHQYDVR0RBBYwFIIHY29sbGF0ZYIJKi5j
b2xsYXRlMBAGA1UdIAQJMAcwBQYDKgMEMB0GA1UdDgQWBBRgyaRSTbyPtfcx6xfV
Y+zvIc99LjAfBgNVHSMEGDAWgBQVJBnrMvhag6fbYCqy/btuj6ujeTANBgkqhkiG
9w0BAQsFAAOCAgEAyE4fvg4rnSYXQz0L8SK2S8OEP62yyrQwFD+xonBTIxcgI2ev
mAA0QYhfiqdPT2+AdTC4M84z/NWW1ui/kAPYZ/9pN/gofs7a6NKTIVpJdtBoyV7j
Osm4o7s4NjySXIhwOMb/yQJRqBh5CfUrWWpVfSNaR2bXbIJItxT0kLGOlxorZJH3
ZZESXpDcRI6rdfliY4UFeMpdRzqydwBfrV+SHiSdskQ7eWqk97MTf9Gh0cYIovlp
SsSR9Iom4tz/IbUByr1sUWhTVkG5pFpr8vrS+4f/hJp1wzmi4trSd7Ge7mHfpyBm
LqCTL/uftv7CTakT4DQi2x1MaToBOzsOfLAbvgGlVP3gwEPAla7EezJqpvECuq5R
TgdZeR2YMJjpact80BaRMCSiHVHEbwpPWUevlDSiSoRytnv72Bo3/C61fkuyytXs
sr2STVHVan7Qb6YBezGBy7eja5Wh2SpXsOsdcuY1C3fdvwxJqRMyWO0hYAq8u3+d
79seCQOHo9hXqYcFwLPLHw9OqAdAFuqNsO3dJaFn4dTPmu3dfKzAqe99JGFuZNIE
CmXuSPS4kmRYYfl9k424OAo1DgzvVktBE8u/jd6V4prrTbd8Uadvj3x6H+VTKn4J
Yc8zmyHONgcMmK3Wyp7HwVJW5limHtyW6gVPOwR5hC+D/sV0jqdB6PXw1IE=
-----END CERTIFICATE-----
