Certificate:
    Data:
        Version: 3 (0x2)
        Serial Number: 7 (0x7)
        Signature Algorithm: sha256WithRSAEncryption
        Issuer: C=AU, ST=Some-State, O=Internet Widgits Pty Ltd
        Validity
            Not Before: Jan 28 02:59:11 2024 GMT
            Not After : Jan 27 02:59:11 2025 GMT
        Subject: C=US, ST=California, L=San Francisco, O=My Company, CN=John Doe/emailAddress=john.doe@example.com
        Subject Public Key Info:
            Public Key Algorithm: rsaEncryption
                Public-Key: (4096 bit)
                Modulus:
                    00:e8:bc:75:7f:da:5d:14:70:f9:a4:54:b6:59:19:
                    db:85:42:19:69:ad:c2:cd:39:2d:3c:f4:ec:df:ac:
                    c5:1f:ce:b5:c0:5e:d7:ab:fc:c7:90:01:27:2f:a5:
                    10:1e:eb:56:7c:77:91:2f:21:34:71:27:dc:dd:1e:
                    15:ca:d0:e4:ca:63:7e:09:47:a4:ff:03:58:50:ee:
                    12:a9:97:88:bd:96:60:9f:76:21:91:a3:4c:60:b4:
                    7f:08:f0:b2:0f:2f:51:2b:df:80:66:01:c4:11:ba:
                    51:40:32:eb:59:d7:18:d2:28:53:40:69:1b:35:88:
                    e2:8c:5a:43:f1:77:ed:3e:ee:31:ae:7e:e9:99:79:
                    f8:db:4f:a3:2e:f2:de:8c:ab:77:85:a0:91:e3:5a:
                    60:f3:9e:ab:b3:d8:36:4a:19:6e:41:c6:39:84:1d:
                    c4:82:9a:42:5d:8a:af:4a:fc:c8:0b:de:45:ce:56:
                    be:0a:71:71:1e:8d:b9:40:1c:85:0b:de:29:d3:69:
                    4e:cb:7f:98:f7:24:a3:50:69:e3:1d:90:ab:37:3d:
                    8f:58:d1:14:21:a9:1b:51:00:bd:88:42:d4:14:38:
                    47:0a:24:5d:2b:e6:f4:3e:95:8f:8e:22:3a:af:27:
                    0a:1e:0f:05:e7:8a:22:c3:4b:fb:ee:9e:a4:d1:65:
                    1d:15:d2:91:b3:6f:1a:ed:46:75:7f:c2:ad:e6:e3:
                    f8:79:9e:1b:05:64:51:89:08:a4:b6:ae:e2:66:94:
                    96:4f:0f:e7:07:d4:53:9b:b3:97:d8:55:05:f0:c6:
                    db:c1:99:8f:c0:29:d4:e9:f8:92:4a:94:43:2e:66:
                    e5:bf:66:af:60:4d:b3:65:ed:e5:39:9b:cb:09:7d:
                    2e:bd:7b:89:de:c5:3b:13:6f:9a:90:95:f2:1c:fd:
                    c7:bd:7a:a0:1a:12:9a:71:30:cc:19:02:f9:8c:93:
                    ab:84:05:dd:1c:63:cb:37:18:7e:6b:63:37:c6:75:
                    8f:57:d9:75:1c:90:e3:51:0b:a0:2c:48:f4:a9:b7:
                    77:5c:e6:d4:65:03:02:17:0d:62:04:95:39:25:65:
                    26:65:df:08:1e:5a:f8:ef:e7:56:f8:13:d1:db:73:
                    28:8c:84:0d:40:9f:04:4f:d5:73:4e:17:f5:89:f6:
                    87:c1:fd:b1:b7:4e:77:60:43:bf:42:56:f9:5d:5f:
                    2a:2e:9a:bd:2f:10:a0:d9:b6:9a:e6:5d:6e:f1:9b:
                    f1:3a:78:4b:40:98:81:72:bd:9d:b3:e0:02:8e:a4:
                    a1:ff:9a:15:21:ff:c1:ee:05:89:9e:6c:bc:10:85:
                    f0:5c:66:ab:a2:ad:0e:df:9c:24:f8:7b:4f:36:1d:
                    7f:0c:83
                Exponent: 65537 (0x10001)
        X509v3 extensions:
            X509v3 Basic Constraints: 
                CA:FALSE
            X509v3 Key Usage: 
                Digital Signature, Non Repudiation, Key Encipherment
            X509v3 Subject Alternative Name: 
                DNS:example.com, DNS:collate, DNS:additionaldomain.com
            1.3.6.1.4.1.54392.5.1620: 
                ........O.....Jm..L.Hr.@8AC.gh.(.rz.....T.XC..p.I.Z>.N..E..d...QRG..2...(...'l.BGk,............m..1.'....x.........K-:.i}|%...j..
..H$L.[EEt.n....%..7w...%..lN.DA.X.....F....`..DT..t. {.C....Z<R........q.Y..gj>I....|nw.....)u^....u...)sW . ..........<0..>..}.....o...x........:..w.}:..g....@....I._...0K...'..=X....a.:c.s..........F.*..@.....p..(d.">...+.....N..}.-.[..........N...C..BOr.UQ.C.3K]..oxF....Ub..,B....k.z.=7h9......|...&.......]....A......g..UjM.....y....P=.e...........F.!W'k.l..^.t....q....d[..x...<Az...:R.......
0P...{Z.`e..G..........y..~.D..".AoeXI..|3....?...$;...
.../.b..[...........b*\...x...Q.........].1.e...h}....d d.....dD...z.n*..y..........]F\*.....A..-..`..%.Y.....*. }..1.........collateC.....dummy.sM. .b....i%#...f.S........12....l5...ns.collate.......0....wI......(...f..J..t..k....~Zd).2.(d..c..@B........
            1.3.6.1.4.1.54392.5.1621: 
                0..+..+......x..U........._443._tcp.collate..4.......#...Y....-.i-.....u.x...3.a.R....-.O._443._tcp.collate..........[.4.....e...e./.sM.collate.j.e.C...0.;....N..i..=.h.m.{....`....M..C.j....L...k:e...[Xcz...collate..0.......D..........t...3^.9.a+J.H .md4=....5...F~Uy..d.....bK..73.....}......collate..........[.0.....e...e./.sM.collate..h..W.op..6.t[.....tg.F-.`.1T......s.y.6......$X....TQ..9....*.collate..+....T_.$sM..b....i%#...f.S........12....l5..collate.......*/.S.+...T`e./.e.E....Z.....3...@.....d...Au.6.R.w].. O....@.{...NV.`.4....+45Y.....C...0....*/.D...O..D.......,d.>:.r.?...`........?^.X.It.).......`..;.....z3...O...0....*/.D...#....%..`...".C..K|C....5.....V.(..F..[...m..................PH........*/.S.0...*0e./.e.E.....L..z.A..)BM...r..3.re...{&H../A.4A......M..u+G0.l..0.......G...
            X509v3 Subject Key Identifier: 
                15:24:19:EB:32:F8:5A:83:A7:DB:60:2A:B2:FD:BB:6E:8F:AB:A3:79
    Signature Algorithm: sha256WithRSAEncryption
    Signature Value:
        2c:f5:e3:f6:ba:cb:1b:5c:2e:b3:a7:62:17:db:62:50:ea:79:
        fa:d2:f8:d1:ae:9c:0c:57:18:cf:80:20:6d:20:a7:4d:0d:dd:
        ce:c5:3a:88:36:80:68:1c:b2:5e:f0:dd:65:74:06:6e:9c:71:
        93:0d:3d:75:5b:57:35:62:a4:64:9a:c2:8e:19:63:db:67:a4:
        ab:ed:6a:67:70:a2:cc:f4:d9:e9:ad:e8:9a:91:2d:c1:24:34:
        98:da:06:82:71:21:0d:3a:7a:ad:0a:89:41:83:97:c7:5e:86:
        e1:4b:50:6d:44:12:39:df:c1:9a:90:3c:3c:e4:cc:a5:4c:14:
        11:f7:ff:51:c3:73:f8:a7:2f:87:93:c3:0a:bb:59:3d:76:d9:
        49:15:ef:8f:40:d4:1d:40:a6:95:87:f3:62:fe:a1:5c:61:d1:
        a7:cf:77:57:8a:46:8d:1b:42:9e:00:3b:5f:ce:aa:bc:e4:19:
        d9:83:88:25:4d:f8:6d:c5:90:92:17:29:22:1d:f9:ef:35:0e:
        98:e0:d6:60:24:bc:c9:b6:79:d8:ba:1d:8b:9e:6d:3d:6d:1d:
        73:8a:b8:80:46:ee:b4:4a:c4:84:77:09:8d:10:49:1b:25:27:
        18:d5:92:8c:2f:04:5d:77:1d:0e:bf:8c:11:43:54:eb:8c:28:
        cc:85:56:61:04:e8:85:12:cc:c9:b6:e1:67:b5:e2:47:2b:77:
        ae:bd:ef:5f:62:05:86:34:87:58:c4:bd:45:ce:96:ff:ea:fc:
        44:53:e4:0d:62:f9:72:ff:21:95:c3:7c:02:5c:a6:f5:70:15:
        d9:8d:5b:7b:b5:82:a9:b3:31:3b:4e:87:49:d9:3e:02:9f:00:
        88:a4:de:ec:cd:e5:f8:76:48:1b:a7:36:3b:e1:11:b8:25:5c:
        6d:db:3b:a8:a3:a0:16:64:94:f1:36:d9:3d:5e:3a:a5:65:2e:
        b1:98:64:6b:4f:05:5f:6e:98:2f:b0:52:84:9f:b4:5a:2e:98:
        a2:1b:bd:51:cf:a7:21:e9:93:bf:d8:6a:2c:bc:64:ad:b9:6e:
        dc:e6:80:f2:3b:7d:19:77:fd:4e:74:a8:a7:7a:35:d8:0d:5b:
        b5:fc:d7:86:91:9e:8c:46:73:a8:ad:56:83:a0:cf:b5:36:60:
        fd:d0:c2:fc:d7:52:a2:d9:d5:ce:76:0a:6c:fb:04:d8:6a:8d:
        e2:3e:c0:9b:0b:c3:8c:89:8a:28:88:c4:a8:d3:26:48:9e:09:
        22:c1:13:93:9c:e9:ea:10:4a:bc:69:7d:7e:79:61:fb:5a:ab:
        b1:42:d5:79:e6:ee:51:b5:c1:5c:8b:62:a5:cc:d3:44:c8:37:
        b3:7f:2d:fa:c9:23:47:5a
-----BEGIN CERTIFICATE-----
MIIMYzCCCkugAwIBAgIBBzANBgkqhkiG9w0BAQsFADBFMQswCQYDVQQGEwJBVTET
MBEGA1UECAwKU29tZS1TdGF0ZTEhMB8GA1UECgwYSW50ZXJuZXQgV2lkZ2l0cyBQ
dHkgTHRkMB4XDTI0MDEyODAyNTkxMVoXDTI1MDEyNzAyNTkxMVowgYcxCzAJBgNV
BAYTAlVTMRMwEQYDVQQIDApDYWxpZm9ybmlhMRYwFAYDVQQHDA1TYW4gRnJhbmNp
c2NvMRMwEQYDVQQKDApNeSBDb21wYW55MREwDwYDVQQDDAhKb2huIERvZTEjMCEG
CSqGSIb3DQEJARYUam9obi5kb2VAZXhhbXBsZS5jb20wggIiMA0GCSqGSIb3DQEB
AQUAA4ICDwAwggIKAoICAQDovHV/2l0UcPmkVLZZGduFQhlprcLNOS089OzfrMUf
zrXAXter/MeQAScvpRAe61Z8d5EvITRxJ9zdHhXK0OTKY34JR6T/A1hQ7hKpl4i9
lmCfdiGRo0xgtH8I8LIPL1Er34BmAcQRulFAMutZ1xjSKFNAaRs1iOKMWkPxd+0+
7jGufumZefjbT6Mu8t6Mq3eFoJHjWmDznquz2DZKGW5BxjmEHcSCmkJdiq9K/MgL
3kXOVr4KcXEejblAHIUL3inTaU7Lf5j3JKNQaeMdkKs3PY9Y0RQhqRtRAL2IQtQU
OEcKJF0r5vQ+lY+OIjqvJwoeDwXniiLDS/vunqTRZR0V0pGzbxrtRnV/wq3m4/h5
nhsFZFGJCKS2ruJmlJZPD+cH1FObs5fYVQXwxtvBmY/AKdTp+JJKlEMuZuW/Zq9g
TbNl7eU5m8sJfS69e4nexTsTb5qQlfIc/ce9eqAaEppxMMwZAvmMk6uEBd0cY8s3
GH5rYzfGdY9X2XUckONRC6AsSPSpt3dc5tRlAwIXDWIElTklZSZl3wgeWvjv51b4
E9HbcyiMhA1AnwRP1XNOF/WJ9ofB/bG3TndgQ79CVvldXyoumr0vEKDZtprmXW7x
m/E6eEtAmIFyvZ2z4AKOpKH/mhUh/8HuBYmebLwQhfBcZquirQ7fnCT4e082HX8M
gwIDAQABo4IHGTCCBxUwCQYDVR0TBAIwADALBgNVHQ8EBAMCBeAwNQYDVR0RBC4w
LIILZXhhbXBsZS5jb22CB2NvbGxhdGWCFGFkZGl0aW9uYWxkb21haW4uY29tMIID
XwYLKwYBBAGDqHgFjFQEggNOF8AWAAAABKdPlrDNpplKbc0YTNVIcqRAOEFDtGdo
uyixcnqo46cUl1TFWEP4tnAeSaVaPgVOuNJFqaRk44/DUVJHsMMy9RCoKLIcAids
u0JHaywfqrjO5a3QALyqzeVt2/oxyyfbuZsVeAKRrKMJjaep7EstOhFpfXwlm5Hr
arOGCtSOSCRMultFRXS5bhz75bMl0dg3d/yHzCX3F2xO/ERBoljWiLT18Ub+gtf8
YMXsRFT5BnSdIHukQxQaBKZaPFLOmhkO9hftGHGHWZWTZ2o+SZjtFs18bnf9ELOD
rSl1Xv2l9ph1FswuKXNXIBogrKjWnM7SlfoM7zwwhR4+ocB9f7yn8h5vH8CYePbU
w/G8lv+iOq33d7B9OgfwZ+aU3cxA7uCNBkkRX72hEzBL/4yAJ5qRPVjxzu/6Yfg6
YwBzFATh/Au0xJvFnUbcKqn6QMQcGLbXcI3GKGT+Ij6F4tUr8PEC2AdOpbp99y2h
W6qW+Ivk06XNLsdOrPXfQ7rxQk9yu1VRrEMGM0tdkpBveEb/5L3mVWIND9ssQp2D
vgxr83rEPTdoOamD9taxv3yMf+om+LkBpZyo/10MgO7/QcKK85H+82eJ0FVqTeb+
0PiceQX64tpQPcRl0dr61+vt1R7cu8NGnSFXJ2sSbI3YXgx069ikHHHjpcyNZFsc
qXgCz4Y8QXrujQE6UojbwYOIsrUKMA1QLg8Ge1qrYGUbrEfa1ey5l++NC6/Qeegf
fo5EwZAio0FvZVhJsL58M6cbmZw/hJQRJDunif8K1uD7L7RiG6JbtvMd2ve2Lo77
Gu9iKlwS+4Z44+DiUcCz8y6eiLud7l2dMaJl/xTBaH3YtLfgZCBk+vTSiLENZETv
DZWMerZuKsuVebzVGeLB8/fP3hhdRlwqsgGApQlBso8tAhJgnIEl5FnmohsRgSrb
IH3YjzG+kLm79RqDAAdjb2xsYXRlQwAABgEFZHVtbXkAc00NAiCuYricCbppJSPm
p/hm9lPPnOiO7sfSDDEynxvew2w1ywICbnMHY29sbGF0ZQCSvgOoAcAwi6wAAHdJ
AgDHAA/8KJDdmmaUl0qG8XS2nmv1xuMIflpkKaQytChk1INjAP5AQg8A/oCWmAAC
MIIDQAYLKwYBBAGDqHgFjFUEggMvMIIDKwYLKwYBBAGDqHgFjFUEggMaAbsAAARf
NDQzBF90Y3AHY29sbGF0ZQAANAABAAAOEAAjAwEBWRWMifAt12kt1sXY27F1Dniy
ucozpmHKUonGGPQtjk8EXzQ0MwRfdGNwB2NvbGxhdGUAAC4AAQAADhAAWwA0DQMA
AA4QZbrfAGWfL4BzTQdjb2xsYXRlAGoXZbpDsBfQMOw7GckUg07phWkGBg09p2jh
bah7tLgB5mCwqZO0TdKBQxpq9pPcC0yupcVrOmWIANdbWGN62wIHY29sbGF0ZQAA
MAABAAAOEABEAQEDDaqU5umgp8p0jYe1M17GOcRhK0q9SCDtbWQ0PfGGy8812pGe
Rn5VeRKIZP0utQv4YkvEuDcz4aaGt7R9z4GwhOUHY29sbGF0ZQAALgABAAAOEABb
ADANAQAADhBlut8AZZ8vgHNNB2NvbGxhdGUA3GjkpFeAb3CVFjabdFvkuw/XGXRn
1UYttmCVMVT9+x+0mekNDXOieQU2FY+qudWIJFipHAbmVFEuAznS1BaeKgdjb2xs
YXRlAAArAAEAAFRfACRzTQ0CrmK4nAm6aSUj5qf4ZvZTz5zoju7H0gwxMp8b3sNs
NcsHY29sbGF0ZQAALgABAAAqLwBTACsNAQAAVGBlvC+5ZZdFue4QAFqY0vGd1TMP
oi5A+9uJnrNkmM3pQXWENrJSk3ddhYQgT+Gzv7tAsXucmppOVqxg7TS6g7emKzQ1
WeHC2ocGQ+0AADAAAQAAKi8ARAEBAw1P1xREnYz8zP2rpSxk1j46ynK+P5S/62Cu
taQu09DCBT9e7liTSXTZKfm5rbEBB8RgjNE7q/mID4F6Mx4TA0/hAAAwAAEAACov
AEQBAAMNI5nPs6clFa1gnwn9IpVDGdJLfEONzgD1NcfuEwEIVuIoHdZGgvVblsLN
bRO+spW3nQYHg92svhy1HOjTiFBIsQAALgABAAAqLwBTADANAAAAKjBlvC+5ZZdF
uYmPAPxMjvp6+UHfFSlCTf2fjXLTgDPwcmUUxwl7Jkik2i9BhDRB7OeRlgcATYay
dStHMMxs9QAwxOGntxTgmEcO0ZIwHQYDVR0OBBYEFBUkGesy+FqDp9tgKrL9u26P
q6N5MA0GCSqGSIb3DQEBCwUAA4ICAQAs9eP2ussbXC6zp2IX22JQ6nn60vjRrpwM
VxjPgCBtIKdNDd3OxTqINoBoHLJe8N1ldAZunHGTDT11W1c1YqRkmsKOGWPbZ6Sr
7WpncKLM9NnpreiakS3BJDSY2gaCcSENOnqtColBg5fHXobhS1BtRBI538GakDw8
5MylTBQR9/9Rw3P4py+Hk8MKu1k9dtlJFe+PQNQdQKaVh/Ni/qFcYdGnz3dXikaN
G0KeADtfzqq85BnZg4glTfhtxZCSFykiHfnvNQ6Y4NZgJLzJtnnYuh2Lnm09bR1z
iriARu60SsSEdwmNEEkbJScY1ZKMLwRddx0Ov4wRQ1TrjCjMhVZhBOiFEszJtuFn
teJHK3euve9fYgWGNIdYxL1Fzpb/6vxEU+QNYvly/yGVw3wCXKb1cBXZjVt7tYKp
szE7TodJ2T4CnwCIpN7szeX4dkgbpzY74RG4JVxt2zuoo6AWZJTxNtk9XjqlZS6x
mGRrTwVfbpgvsFKEn7RaLpiiG71Rz6ch6ZO/2GosvGStuW7c5oDyO30Zd/1OdKin
ejXYDVu1/NeGkZ6MRnOorVaDoM+1NmD90ML811Ki2dXOdgps+wTYao3iPsCbC8OM
iYooiMSo0yZIngkiwROTnOnqEEq8aX1+eWH7WquxQtV55u5RtcFci2KlzNNEyDez
fy36ySNHWg==
-----END CERTIFICATE-----
