Certificate:
    Data:
        Version: 3 (0x2)
        Serial Number: 8 (0x8)
        Signature Algorithm: sha256WithRSAEncryption
        Issuer: C=AU, ST=Some-State, O=Internet Widgits Pty Ltd
        Validity
            Not Before: Jan 28 03:03:46 2024 GMT
            Not After : Jan 27 03:03:46 2025 GMT
        Subject: C=US, ST=California, L=San Francisco, O=My Company, CN=John Doe/emailAddress=john.doe@example.com
        Subject Public Key Info:
            Public Key Algorithm: rsaEncryption
                Public-Key: (4096 bit)
                Modulus:
                    00:e8:bc:75:7f:da:5d:14:70:f9:a4:54:b6:59:19:
                    db:85:42:19:69:ad:c2:cd:39:2d:3c:f4:ec:df:ac:
                    c5:1f:ce:b5:c0:5e:d7:ab:fc:c7:90:01:27:2f:a5:
                    10:1e:eb:56:7c:77:91:2f:21:34:71:27:dc:dd:1e:
                    15:ca:d0:e4:ca:63:7e:09:47:a4:ff:03:58:50:ee:
                    12:a9:97:88:bd:96:60:9f:76:21:91:a3:4c:60:b4:
                    7f:08:f0:b2:0f:2f:51:2b:df:80:66:01:c4:11:ba:
                    51:40:32:eb:59:d7:18:d2:28:53:40:69:1b:35:88:
                    e2:8c:5a:43:f1:77:ed:3e:ee:31:ae:7e:e9:99:79:
                    f8:db:4f:a3:2e:f2:de:8c:ab:77:85:a0:91:e3:5a:
                    60:f3:9e:ab:b3:d8:36:4a:19:6e:41:c6:39:84:1d:
                    c4:82:9a:42:5d:8a:af:4a:fc:c8:0b:de:45:ce:56:
                    be:0a:71:71:1e:8d:b9:40:1c:85:0b:de:29:d3:69:
                    4e:cb:7f:98:f7:24:a3:50:69:e3:1d:90:ab:37:3d:
                    8f:58:d1:14:21:a9:1b:51:00:bd:88:42:d4:14:38:
                    47:0a:24:5d:2b:e6:f4:3e:95:8f:8e:22:3a:af:27:
                    0a:1e:0f:05:e7:8a:22:c3:4b:fb:ee:9e:a4:d1:65:
                    1d:15:d2:91:b3:6f:1a:ed:46:75:7f:c2:ad:e6:e3:
                    f8:79:9e:1b:05:64:51:89:08:a4:b6:ae:e2:66:94:
                    96:4f:0f:e7:07:d4:53:9b:b3:97:d8:55:05:f0:c6:
                    db:c1:99:8f:c0:29:d4:e9:f8:92:4a:94:43:2e:66:
                    e5:bf:66:af:60:4d:b3:65:ed:e5:39:9b:cb:09:7d:
                    2e:bd:7b:89:de:c5:3b:13:6f:9a:90:95:f2:1c:fd:
                    c7:bd:7a:a0:1a:12:9a:71:30:cc:19:02:f9:8c:93:
                    ab:84:05:dd:1c:63:cb:37:18:7e:6b:63:37:c6:75:
                    8f:57:d9:75:1c:90:e3:51:0b:a0:2c:48:f4:a9:b7:
                    77:5c:e6:d4:65:03:02:17:0d:62:04:95:39:25:65:
                    26:65:df:08:1e:5a:f8:ef:e7:56:f8:13:d1:db:73:
                    28:8c:84:0d:40:9f:04:4f:d5:73:4e:17:f5:89:f6:
                    87:c1:fd:b1:b7:4e:77:60:43:bf:42:56:f9:5d:5f:
                    2a:2e:9a:bd:2f:10:a0:d9:b6:9a:e6:5d:6e:f1:9b:
                    f1:3a:78:4b:40:98:81:72:bd:9d:b3:e0:02:8e:a4:
                    a1:ff:9a:15:21:ff:c1:ee:05:89:9e:6c:bc:10:85:
                    f0:5c:66:ab:a2:ad:0e:df:9c:24:f8:7b:4f:36:1d:
                    7f:0c:83
                Exponent: 65537 (0x10001)
        X509v3 extensions:
            X509v3 Basic Constraints: 
                CA:FALSE
            X509v3 Key Usage: 
                Digital Signature, Non Repudiation, Key Encipherment
            X509v3 Subject Alternative Name: 
                DNS:example.com, DNS:collate, DNS:additionaldomain.com
            1.3.6.1.4.1.54392.5.1620: 
                .mc.dr."..Y.R..n....q.[.....G_...........O.....Jm..L.Hr.@8AC.gh.(.rz.....T.XC..p.I.Z>.N..E..d...QRG..2...(...'l.BGk,............m..1.'....x.........K-:.i}|%...j..
..H$L.[EEt.n....%..7w...%..lN.DA.X.....F....`..DT..t. {.C....Z<R........q.Y..gj>I....|nw.....)u^....u...)sW . ..........<0..>..}.....o...x........:..w.}:..g....@....I._...0K...'..=X....a.:c.s..........F.*..@.....p..(d.">...+.....N..}.-.[..........N...C..BOr.UQ.C.3K]..oxF....Ub..,B....k.z.=7h9......|...&.......]....A......g..UjM.....y....P=.e...........F.!W'k.l..^.t....q....d[..x...<Az...:R.......
0P...{Z.`e..G..........y..~.D..".AoeXI..|3....?...$;...
.../.b..[...........b*\...x...Q.........].1.e...h}....d d.....dD...z.n*..y..........]F\*.....A..-..`..%.Y.....*. }..1.........collateC.....dummy.sM. .b....i%#...f.S........12....l5...ns.collate.......0....wI......(...f..J..t..k....~Zd).2.(d..c..@B........
            1.3.6.1.4.1.54392.5.1621: 
                0..+..+......x..U........._443._tcp.collate..4.......#...Y....-.i-.....u.x...3.a.R....-.O._443._tcp.collate..........[.4.....e...e./.sM.collate.j.e.C...0.;....N..i..=.h.m.{....`....M..C.j....L...k:e...[Xcz...collate..0.......D..........t...3^.9.a+J.H .md4=....5...F~Uy..d.....bK..73.....}......collate..........[.0.....e...e./.sM.collate..h..W.op..6.t[.....tg.F-.`.1T......s.y.6......$X....TQ..9....*.collate..+....T_.$sM..b....i%#...f.S........12....l5..collate.......*/.S.+...T`e./.e.E....Z.....3...@.....d...Au.6.R.w].. O....@.{...NV.`.4....+45Y.....C...0....*/.D...O..D.......,d.>:.r.?...`........?^.X.It.).......`..;.....z3...O...0....*/.D...#....%..`...".C..K|C....5.....V.(..F..[...m..................PH........*/.S.0...*0e./.e.E.....L..z.A..)BM...r..3.re...{&H../A.4A......M..u+G0.l..0.......G...
            X509v3 Subject Key Identifier: 
                15:24:19:EB:32:F8:5A:83:A7:DB:60:2A:B2:FD:BB:6E:8F:AB:A3:79
    Signature Algorithm: sha256WithRSAEncryption
    Signature Value:
        82:d6:35:f4:fe:0a:46:b9:1f:4f:34:cd:ce:31:9a:b1:74:2f:
        0a:d3:43:11:fd:b0:d7:e2:61:31:33:97:68:62:6c:97:4a:29:
        db:24:b6:9c:6f:1c:7f:f1:89:1c:33:28:08:a2:e9:b0:83:5e:
        65:eb:73:29:55:f6:57:f4:19:3b:b4:c9:9e:a0:a7:f0:02:67:
        0b:d5:51:b2:30:85:f6:80:7b:ef:e2:24:f2:98:2e:88:16:20:
        77:e2:be:c0:68:4a:e0:39:6c:59:83:7c:7d:34:83:c4:fd:47:
        ac:63:c2:3a:21:86:01:38:a0:0e:67:59:06:30:5e:5b:92:a6:
        00:89:ef:8a:e5:48:4c:92:c4:47:8c:b6:c5:37:50:04:f9:bc:
        a6:b6:16:bc:f9:ab:dc:e4:71:06:e9:1f:a8:f9:a7:57:88:a8:
        2a:9f:31:8d:88:e2:01:24:20:30:e0:8c:7c:96:4f:55:b4:4a:
        5b:56:6d:ca:57:d6:f6:cc:11:35:3b:18:be:24:ad:06:8f:bf:
        49:60:91:6f:9b:e5:5e:4a:3f:ff:c5:46:f7:5a:44:5c:31:83:
        a7:d9:68:b6:1d:5a:d3:11:8f:09:1c:5c:cc:d6:79:9a:b8:ad:
        ac:4e:3c:37:ae:0f:b2:ad:b8:1b:89:49:21:a3:08:66:47:b0:
        b8:40:5b:3e:3c:fc:d7:ee:c7:35:81:dd:98:8e:6b:dc:ac:70:
        2d:ac:eb:2c:c6:c4:0b:c6:46:32:ed:d0:2d:09:bc:df:6c:43:
        87:c7:96:0f:08:d0:b6:0a:82:f4:e7:99:10:2b:5e:f9:95:c2:
        35:a2:78:73:fb:a4:9f:f6:e7:9f:f1:e9:58:67:00:a0:4b:11:
        01:54:c5:d1:ff:ff:26:90:d2:6c:c6:05:c9:8e:7f:e9:2b:87:
        da:7a:3c:03:8e:b5:05:cc:c0:93:6d:3f:ef:63:32:db:59:c9:
        cc:04:7d:58:7f:2e:c8:6e:9a:63:b0:8c:39:d3:51:2a:09:01:
        0d:3c:68:6a:9e:bd:c9:cb:9f:23:27:b5:56:97:4c:31:d7:9c:
        a6:d7:b9:a5:fb:73:52:45:7e:0c:3d:67:8d:78:fb:70:c4:c7:
        10:75:34:67:c2:fd:75:0e:af:76:7f:61:34:13:db:1f:00:84:
        90:97:cc:97:e0:0d:fa:73:08:48:70:cd:6f:c8:5b:71:1b:4a:
        2a:5f:9e:dc:fb:b2:f0:21:c0:4e:71:74:ff:9d:c3:5f:45:94:
        ee:c0:65:80:56:7e:65:a6:ef:54:ed:91:90:dc:7e:4e:88:86:
        d8:f1:67:7e:59:0c:60:98:01:be:f1:cb:6f:b6:2b:65:26:5c:
        01:ac:a1:91:19:db:cd:1b
-----BEGIN CERTIFICATE-----
MIIMhDCCCmygAwIBAgIBCDANBgkqhkiG9w0BAQsFADBFMQswCQYDVQQGEwJBVTET
MBEGA1UECAwKU29tZS1TdGF0ZTEhMB8GA1UECgwYSW50ZXJuZXQgV2lkZ2l0cyBQ
dHkgTHRkMB4XDTI0MDEyODAzMDM0NloXDTI1MDEyNzAzMDM0NlowgYcxCzAJBgNV
BAYTAlVTMRMwEQYDVQQIDApDYWxpZm9ybmlhMRYwFAYDVQQHDA1TYW4gRnJhbmNp
c2NvMRMwEQYDVQQKDApNeSBDb21wYW55MREwDwYDVQQDDAhKb2huIERvZTEjMCEG
CSqGSIb3DQEJARYUam9obi5kb2VAZXhhbXBsZS5jb20wggIiMA0GCSqGSIb3DQEB
AQUAA4ICDwAwggIKAoICAQDovHV/2l0UcPmkVLZZGduFQhlprcLNOS089OzfrMUf
zrXAXter/MeQAScvpRAe61Z8d5EvITRxJ9zdHhXK0OTKY34JR6T/A1hQ7hKpl4i9
lmCfdiGRo0xgtH8I8LIPL1Er34BmAcQRulFAMutZ1xjSKFNAaRs1iOKMWkPxd+0+
7jGufumZefjbT6Mu8t6Mq3eFoJHjWmDznquz2DZKGW5BxjmEHcSCmkJdiq9K/MgL
3kXOVr4KcXEejblAHIUL3inTaU7Lf5j3JKNQaeMdkKs3PY9Y0RQhqRtRAL2IQtQU
OEcKJF0r5vQ+lY+OIjqvJwoeDwXniiLDS/vunqTRZR0V0pGzbxrtRnV/wq3m4/h5
nhsFZFGJCKS2ruJmlJZPD+cH1FObs5fYVQXwxtvBmY/AKdTp+JJKlEMuZuW/Zq9g
TbNl7eU5m8sJfS69e4nexTsTb5qQlfIc/ce9eqAaEppxMMwZAvmMk6uEBd0cY8s3
GH5rYzfGdY9X2XUckONRC6AsSPSpt3dc5tRlAwIXDWIElTklZSZl3wgeWvjv51b4
E9HbcyiMhA1AnwRP1XNOF/WJ9ofB/bG3TndgQ79CVvldXyoumr0vEKDZtprmXW7x
m/E6eEtAmIFyvZ2z4AKOpKH/mhUh/8HuBYmebLwQhfBcZquirQ7fnCT4e082HX8M
gwIDAQABo4IHOjCCBzYwCQYDVR0TBAIwADALBgNVHQ8EBAMCBeAwNQYDVR0RBC4w
LIILZXhhbXBsZS5jb22CB2NvbGxhdGWCFGFkZGl0aW9uYWxkb21haW4uY29tMIID
gAYLKwYBBAGDqHgFjFQEggNvAW1jk2Ry7iIRgVmiUgjkbprr6/JxGVuO7fPIC0df
hp+3F8AWAAAABKdPlrDNpplKbc0YTNVIcqRAOEFDtGdouyixcnqo46cUl1TFWEP4
tnAeSaVaPgVOuNJFqaRk44/DUVJHsMMy9RCoKLIcAidsu0JHaywfqrjO5a3QALyq
zeVt2/oxyyfbuZsVeAKRrKMJjaep7EstOhFpfXwlm5HrarOGCtSOSCRMultFRXS5
bhz75bMl0dg3d/yHzCX3F2xO/ERBoljWiLT18Ub+gtf8YMXsRFT5BnSdIHukQxQa
BKZaPFLOmhkO9hftGHGHWZWTZ2o+SZjtFs18bnf9ELODrSl1Xv2l9ph1FswuKXNX
IBogrKjWnM7SlfoM7zwwhR4+ocB9f7yn8h5vH8CYePbUw/G8lv+iOq33d7B9Ogfw
Z+aU3cxA7uCNBkkRX72hEzBL/4yAJ5qRPVjxzu/6Yfg6YwBzFATh/Au0xJvFnUbc
Kqn6QMQcGLbXcI3GKGT+Ij6F4tUr8PEC2AdOpbp99y2hW6qW+Ivk06XNLsdOrPXf
Q7rxQk9yu1VRrEMGM0tdkpBveEb/5L3mVWIND9ssQp2Dvgxr83rEPTdoOamD9tax
v3yMf+om+LkBpZyo/10MgO7/QcKK85H+82eJ0FVqTeb+0PiceQX64tpQPcRl0dr6
1+vt1R7cu8NGnSFXJ2sSbI3YXgx069ikHHHjpcyNZFscqXgCz4Y8QXrujQE6Uojb
wYOIsrUKMA1QLg8Ge1qrYGUbrEfa1ey5l++NC6/Qeegffo5EwZAio0FvZVhJsL58
M6cbmZw/hJQRJDunif8K1uD7L7RiG6JbtvMd2ve2Lo77Gu9iKlwS+4Z44+DiUcCz
8y6eiLud7l2dMaJl/xTBaH3YtLfgZCBk+vTSiLENZETvDZWMerZuKsuVebzVGeLB
8/fP3hhdRlwqsgGApQlBso8tAhJgnIEl5FnmohsRgSrbIH3YjzG+kLm79RqDAAdj
b2xsYXRlQwAABgEFZHVtbXkAc00NAiCuYricCbppJSPmp/hm9lPPnOiO7sfSDDEy
nxvew2w1ywICbnMHY29sbGF0ZQCSvgOoAcAwi6wAAHdJAgDHAA/8KJDdmmaUl0qG
8XS2nmv1xuMIflpkKaQytChk1INjAP5AQg8A/oCWmAACMIIDQAYLKwYBBAGDqHgF
jFUEggMvMIIDKwYLKwYBBAGDqHgFjFUEggMaAbsAAARfNDQzBF90Y3AHY29sbGF0
ZQAANAABAAAOEAAjAwEBWRWMifAt12kt1sXY27F1DniyucozpmHKUonGGPQtjk8E
XzQ0MwRfdGNwB2NvbGxhdGUAAC4AAQAADhAAWwA0DQMAAA4QZbrfAGWfL4BzTQdj
b2xsYXRlAGoXZbpDsBfQMOw7GckUg07phWkGBg09p2jhbah7tLgB5mCwqZO0TdKB
Qxpq9pPcC0yupcVrOmWIANdbWGN62wIHY29sbGF0ZQAAMAABAAAOEABEAQEDDaqU
5umgp8p0jYe1M17GOcRhK0q9SCDtbWQ0PfGGy8812pGeRn5VeRKIZP0utQv4YkvE
uDcz4aaGt7R9z4GwhOUHY29sbGF0ZQAALgABAAAOEABbADANAQAADhBlut8AZZ8v
gHNNB2NvbGxhdGUA3GjkpFeAb3CVFjabdFvkuw/XGXRn1UYttmCVMVT9+x+0mekN
DXOieQU2FY+qudWIJFipHAbmVFEuAznS1BaeKgdjb2xsYXRlAAArAAEAAFRfACRz
TQ0CrmK4nAm6aSUj5qf4ZvZTz5zoju7H0gwxMp8b3sNsNcsHY29sbGF0ZQAALgAB
AAAqLwBTACsNAQAAVGBlvC+5ZZdFue4QAFqY0vGd1TMPoi5A+9uJnrNkmM3pQXWE
NrJSk3ddhYQgT+Gzv7tAsXucmppOVqxg7TS6g7emKzQ1WeHC2ocGQ+0AADAAAQAA
Ki8ARAEBAw1P1xREnYz8zP2rpSxk1j46ynK+P5S/62CutaQu09DCBT9e7liTSXTZ
Kfm5rbEBB8RgjNE7q/mID4F6Mx4TA0/hAAAwAAEAACovAEQBAAMNI5nPs6clFa1g
nwn9IpVDGdJLfEONzgD1NcfuEwEIVuIoHdZGgvVblsLNbRO+spW3nQYHg92svhy1
HOjTiFBIsQAALgABAAAqLwBTADANAAAAKjBlvC+5ZZdFuYmPAPxMjvp6+UHfFSlC
Tf2fjXLTgDPwcmUUxwl7Jkik2i9BhDRB7OeRlgcATYaydStHMMxs9QAwxOGntxTg
mEcO0ZIwHQYDVR0OBBYEFBUkGesy+FqDp9tgKrL9u26Pq6N5MA0GCSqGSIb3DQEB
CwUAA4ICAQCC1jX0/gpGuR9PNM3OMZqxdC8K00MR/bDX4mExM5doYmyXSinbJLac
bxx/8YkcMygIoumwg15l63MpVfZX9Bk7tMmeoKfwAmcL1VGyMIX2gHvv4iTymC6I
FiB34r7AaErgOWxZg3x9NIPE/UesY8I6IYYBOKAOZ1kGMF5bkqYAie+K5UhMksRH
jLbFN1AE+bymtha8+avc5HEG6R+o+adXiKgqnzGNiOIBJCAw4Ix8lk9VtEpbVm3K
V9b2zBE1Oxi+JK0Gj79JYJFvm+VeSj//xUb3WkRcMYOn2Wi2HVrTEY8JHFzM1nma
uK2sTjw3rg+yrbgbiUkhowhmR7C4QFs+PPzX7sc1gd2YjmvcrHAtrOssxsQLxkYy
7dAtCbzfbEOHx5YPCNC2CoL055kQK175lcI1onhz+6Sf9uef8elYZwCgSxEBVMXR
//8mkNJsxgXJjn/pK4faejwDjrUFzMCTbT/vYzLbWcnMBH1Yfy7IbppjsIw501Eq
CQENPGhqnr3Jy58jJ7VWl0wx15ym17ml+3NSRX4MPWeNePtwxMcQdTRnwv11Dq92
f2E0E9sfAISQl8yX4A36cwhIcM1vyFtxG0oqX57c+7LwIcBOcXT/ncNfRZTuwGWA
Vn5lpu9U7ZGQ3H5OiIbY8Wd+WQxgmAG+8ctvtitlJlwBrKGRGdvNGw==
-----END CERTIFICATE-----
