Certificate:
    Data:
        Version: 3 (0x2)
        Serial Number: 15 (0xf)
        Signature Algorithm: sha256WithRSAEncryption
        Issuer: C=AU, ST=Some-State, O=Internet Widgits Pty Ltd
        Validity
            Not Before: Jan 28 16:40:15 2024 GMT
            Not After : Jan 27 16:40:15 2025 GMT
        Subject: C=US, ST=California, L=San Francisco, O=My Company, CN=John Doe/emailAddress=john.doe@example.com
        Subject Public Key Info:
            Public Key Algorithm: rsaEncryption
                Public-Key: (4096 bit)
                Modulus:
                    00:e8:bc:75:7f:da:5d:14:70:f9:a4:54:b6:59:19:
                    db:85:42:19:69:ad:c2:cd:39:2d:3c:f4:ec:df:ac:
                    c5:1f:ce:b5:c0:5e:d7:ab:fc:c7:90:01:27:2f:a5:
                    10:1e:eb:56:7c:77:91:2f:21:34:71:27:dc:dd:1e:
                    15:ca:d0:e4:ca:63:7e:09:47:a4:ff:03:58:50:ee:
                    12:a9:97:88:bd:96:60:9f:76:21:91:a3:4c:60:b4:
                    7f:08:f0:b2:0f:2f:51:2b:df:80:66:01:c4:11:ba:
                    51:40:32:eb:59:d7:18:d2:28:53:40:69:1b:35:88:
                    e2:8c:5a:43:f1:77:ed:3e:ee:31:ae:7e:e9:99:79:
                    f8:db:4f:a3:2e:f2:de:8c:ab:77:85:a0:91:e3:5a:
                    60:f3:9e:ab:b3:d8:36:4a:19:6e:41:c6:39:84:1d:
                    c4:82:9a:42:5d:8a:af:4a:fc:c8:0b:de:45:ce:56:
                    be:0a:71:71:1e:8d:b9:40:1c:85:0b:de:29:d3:69:
                    4e:cb:7f:98:f7:24:a3:50:69:e3:1d:90:ab:37:3d:
                    8f:58:d1:14:21:a9:1b:51:00:bd:88:42:d4:14:38:
                    47:0a:24:5d:2b:e6:f4:3e:95:8f:8e:22:3a:af:27:
                    0a:1e:0f:05:e7:8a:22:c3:4b:fb:ee:9e:a4:d1:65:
                    1d:15:d2:91:b3:6f:1a:ed:46:75:7f:c2:ad:e6:e3:
                    f8:79:9e:1b:05:64:51:89:08:a4:b6:ae:e2:66:94:
                    96:4f:0f:e7:07:d4:53:9b:b3:97:d8:55:05:f0:c6:
                    db:c1:99:8f:c0:29:d4:e9:f8:92:4a:94:43:2e:66:
                    e5:bf:66:af:60:4d:b3:65:ed:e5:39:9b:cb:09:7d:
                    2e:bd:7b:89:de:c5:3b:13:6f:9a:90:95:f2:1c:fd:
                    c7:bd:7a:a0:1a:12:9a:71:30:cc:19:02:f9:8c:93:
                    ab:84:05:dd:1c:63:cb:37:18:7e:6b:63:37:c6:75:
                    8f:57:d9:75:1c:90:e3:51:0b:a0:2c:48:f4:a9:b7:
                    77:5c:e6:d4:65:03:02:17:0d:62:04:95:39:25:65:
                    26:65:df:08:1e:5a:f8:ef:e7:56:f8:13:d1:db:73:
                    28:8c:84:0d:40:9f:04:4f:d5:73:4e:17:f5:89:f6:
                    87:c1:fd:b1:b7:4e:77:60:43:bf:42:56:f9:5d:5f:
                    2a:2e:9a:bd:2f:10:a0:d9:b6:9a:e6:5d:6e:f1:9b:
                    f1:3a:78:4b:40:98:81:72:bd:9d:b3:e0:02:8e:a4:
                    a1:ff:9a:15:21:ff:c1:ee:05:89:9e:6c:bc:10:85:
                    f0:5c:66:ab:a2:ad:0e:df:9c:24:f8:7b:4f:36:1d:
                    7f:0c:83
                Exponent: 65537 (0x10001)
        X509v3 extensions:
            X509v3 Basic Constraints: 
                CA:FALSE
            X509v3 Key Usage: 
                Digital Signature, Non Repudiation, Key Encipherment
            X509v3 Subject Alternative Name: 
                DNS:certainly.fake.domain.com, DNS:*.collate.
            1.3.6.1.4.1.54392.5.1620: 
                .mc.dr."..Y.R..n....q.[.....G_...........O.....Jm..L.Hr.@8AC.gh.(.rz.....T.XC..p.I.Z>.N..E..d...QRG..2...(...'l.BGk,............m..1.'....x.........K-:.i}|%...j..
..H$L.[EEt.n....%..7w...%..lN.DA.X.....F....`..DT..t. {.C....Z<R........q.Y..gj>I....|nw.....)u^....u...)sW . ..........<0..>..}.....o...x........:..w.}:..g....@....I._...0K...'..=X....a.:c.s..........F.*..@.....p..(d.">...+.....N..}.-.[..........N...C..BOr.UQ.C.3K]..oxF....Ub..,B....k.z.=7h9......|...&.......]....A......g..UjM.....y....P=.e...........F.!W'k.l..^.t....q....d[..x...<Az...:R.......
0P...{Z.`e..G..........y..~.D..".AoeXI..|3....?...$;...
.../.b..[...........b*\...x...Q.........].1.e...h}....d d.....dD...z.n*..y..........]F\*.....A..-..`..%.Y.....*. }..1.........collateC.....dummy.sM. .b....i%#...f.S........12....l5...ns.collate.......0....wI......(...f..J..t..k....~Zd).2.(d..c..@B........
            1.3.6.1.4.1.54392.5.1621: 
                ....._443._tcp.collate..4.....,.#...Y....-.i-.....u.x...3.a.R....-.O._443._tcp.collate..4.....,.........._443._tcp.collate........,.[.4....,e...e.j.sM.collate..].A...,......v.({..c.Ug..u...b.&...............'k..(4...c..qZ..collate..0.......D..........t...3^.9.a+J.H .md4=....5...F~Uy..d.....bK..73.....}......collate..........[.0.....e...e.j.sM.collate.5U.::.(.*.......vYT...1.W........K.>=.gD.n..LL...G.p..)..7q..L.[.collate..+....?*.$sM..b....i%#...f.S........12....l5..collate..........S.+...T`g...e.............C}D.,........o7@$.YEQ..,qx.......D...3.@......`.I.........0.......D...O..D.......,d.>:.r.?...`........?^.X.It.).......`..;.....z3...O...0.......D...#....%..`...".C..K|C....5.....V.(..F..[...m..................PH...........S.0...*0g...e."............$EL4A..Q. .vZ.l..4~@...C#....Ac.&{G...?...;....H....DYO.
            X509v3 Subject Key Identifier: 
                15:24:19:EB:32:F8:5A:83:A7:DB:60:2A:B2:FD:BB:6E:8F:AB:A3:79
    Signature Algorithm: sha256WithRSAEncryption
    Signature Value:
        2a:cb:37:0d:62:ba:91:1c:31:9d:2d:32:fe:15:1c:b0:e1:30:
        d5:68:4c:a8:dd:9a:c2:fc:50:97:a2:a4:48:8f:73:bf:f3:e9:
        00:2e:10:c4:fb:c1:46:90:11:d5:cb:ee:11:be:af:a3:13:51:
        4b:80:73:b9:fa:57:2d:fa:64:24:56:e4:8a:e6:9c:9d:03:4a:
        19:22:03:da:b8:cf:7a:e6:45:a1:33:88:22:2e:b8:21:3a:b2:
        e4:82:95:43:d0:a8:52:4c:fe:69:5d:5e:e5:b6:17:69:11:ed:
        d5:be:a1:00:12:06:0e:e3:0c:8e:85:cf:20:a4:7b:5c:91:84:
        f1:6a:d2:98:ac:24:dc:a4:19:30:ea:15:b3:d6:0a:57:f4:25:
        c0:20:29:68:82:dd:c5:9b:c1:60:a6:37:99:fb:b0:cf:57:1a:
        6c:19:c9:e4:05:b6:94:28:46:5a:3f:d7:87:e1:ee:87:3a:08:
        66:97:ac:c0:c1:0b:64:b3:1a:18:e9:4a:f5:20:fa:58:19:3e:
        98:a0:e3:b7:83:07:39:7a:9c:e6:26:34:94:3d:dc:52:53:67:
        e0:1e:3e:41:09:a0:e6:78:5d:cf:cd:a5:91:26:a9:be:81:c6:
        d7:56:b7:5a:a4:3c:be:80:81:00:dc:2d:63:8d:ac:93:ef:db:
        0d:a5:67:25:a9:0e:fe:35:a4:07:14:46:9d:77:ac:d3:38:08:
        d9:6c:31:26:39:32:77:57:4f:4e:03:a1:66:44:c8:9a:de:2f:
        ab:c3:cb:d4:97:ac:5d:1f:1e:ff:37:c0:9c:bd:ec:2e:32:45:
        e0:cc:08:3f:f6:cb:a1:d1:da:ed:12:0d:92:45:2c:32:18:2b:
        12:15:46:b7:1e:85:11:53:9a:f3:f2:65:c0:46:8b:f2:2f:bd:
        5f:a2:82:ad:32:2f:e7:dc:1a:ed:07:1d:71:c6:85:c2:fc:c2:
        e7:7f:bc:93:87:a0:49:b2:3d:a2:3d:d4:92:49:c6:84:1a:0e:
        41:97:f8:58:af:b7:9c:5a:0f:4a:6d:3b:d5:e3:58:04:ab:8b:
        9b:0d:69:48:a7:80:43:82:99:d1:87:eb:6d:78:de:dc:ed:3c:
        9b:0c:64:14:62:bb:79:05:aa:0a:74:48:21:f4:10:1d:c0:c6:
        09:2f:5c:f6:e4:b0:16:1d:50:e5:1b:e3:a0:90:b7:2d:50:df:
        f2:6b:56:02:cf:b7:9b:97:1b:f1:6e:04:47:80:18:23:c6:e7:
        81:ca:6b:b7:5f:f5:54:b1:d6:3c:12:27:22:92:9d:21:6f:70:
        b5:a9:c3:c8:03:ec:09:60:d7:ee:06:8b:2d:6c:e8:95:8b:eb:
        57:e5:93:cd:f8:5f:b9:4e
-----BEGIN CERTIFICATE-----
MIIMjjCCCnagAwIBAgIBDzANBgkqhkiG9w0BAQsFADBFMQswCQYDVQQGEwJBVTET
MBEGA1UECAwKU29tZS1TdGF0ZTEhMB8GA1UECgwYSW50ZXJuZXQgV2lkZ2l0cyBQ
dHkgTHRkMB4XDTI0MDEyODE2NDAxNVoXDTI1MDEyNzE2NDAxNVowgYcxCzAJBgNV
BAYTAlVTMRMwEQYDVQQIDApDYWxpZm9ybmlhMRYwFAYDVQQHDA1TYW4gRnJhbmNp
c2NvMRMwEQYDVQQKDApNeSBDb21wYW55MREwDwYDVQQDDAhKb2huIERvZTEjMCEG
CSqGSIb3DQEJARYUam9obi5kb2VAZXhhbXBsZS5jb20wggIiMA0GCSqGSIb3DQEB
AQUAA4ICDwAwggIKAoICAQDovHV/2l0UcPmkVLZZGduFQhlprcLNOS089OzfrMUf
zrXAXter/MeQAScvpRAe61Z8d5EvITRxJ9zdHhXK0OTKY34JR6T/A1hQ7hKpl4i9
lmCfdiGRo0xgtH8I8LIPL1Er34BmAcQRulFAMutZ1xjSKFNAaRs1iOKMWkPxd+0+
7jGufumZefjbT6Mu8t6Mq3eFoJHjWmDznquz2DZKGW5BxjmEHcSCmkJdiq9K/MgL
3kXOVr4KcXEejblAHIUL3inTaU7Lf5j3JKNQaeMdkKs3PY9Y0RQhqRtRAL2IQtQU
OEcKJF0r5vQ+lY+OIjqvJwoeDwXniiLDS/vunqTRZR0V0pGzbxrtRnV/wq3m4/h5
nhsFZFGJCKS2ruJmlJZPD+cH1FObs5fYVQXwxtvBmY/AKdTp+JJKlEMuZuW/Zq9g
TbNl7eU5m8sJfS69e4nexTsTb5qQlfIc/ce9eqAaEppxMMwZAvmMk6uEBd0cY8s3
GH5rYzfGdY9X2XUckONRC6AsSPSpt3dc5tRlAwIXDWIElTklZSZl3wgeWvjv51b4
E9HbcyiMhA1AnwRP1XNOF/WJ9ofB/bG3TndgQ79CVvldXyoumr0vEKDZtprmXW7x
m/E6eEtAmIFyvZ2z4AKOpKH/mhUh/8HuBYmebLwQhfBcZquirQ7fnCT4e082HX8M
gwIDAQABo4IHRDCCB0AwCQYDVR0TBAIwADALBgNVHQ8EBAMCBeAwMAYDVR0RBCkw
J4IZY2VydGFpbmx5LmZha2UuZG9tYWluLmNvbYIKKi5jb2xsYXRlLjCCA4AGCysG
AQQBg6h4BYxUBIIDbwFtY5Nkcu4iEYFZolII5G6a6+vycRlbju3zyAtHX4aftxfA
FgAAAASnT5awzaaZSm3NGEzVSHKkQDhBQ7RnaLsosXJ6qOOnFJdUxVhD+LZwHkml
Wj4FTrjSRamkZOOPw1FSR7DDMvUQqCiyHAInbLtCR2ssH6q4zuWt0AC8qs3lbdv6
Mcsn27mbFXgCkayjCY2nqexLLToRaX18JZuR62qzhgrUjkgkTLpbRUV0uW4c++Wz
JdHYN3f8h8wl9xdsTvxEQaJY1oi09fFG/oLX/GDF7ERU+QZ0nSB7pEMUGgSmWjxS
zpoZDvYX7Rhxh1mVk2dqPkmY7RbNfG53/RCzg60pdV79pfaYdRbMLilzVyAaIKyo
1pzO0pX6DO88MIUePqHAfX+8p/Iebx/AmHj21MPxvJb/ojqt93ewfToH8GfmlN3M
QO7gjQZJEV+9oRMwS/+MgCeakT1Y8c7v+mH4OmMAcxQE4fwLtMSbxZ1G3Cqp+kDE
HBi213CNxihk/iI+heLVK/DxAtgHTqW6ffctoVuqlviL5NOlzS7HTqz130O68UJP
crtVUaxDBjNLXZKQb3hG/+S95lViDQ/bLEKdg74Ma/N6xD03aDmpg/bWsb98jH/q
Jvi5AaWcqP9dDIDu/0HCivOR/vNnidBVak3m/tD4nHkF+uLaUD3EZdHa+tfr7dUe
3LvDRp0hVydrEmyN2F4MdOvYpBxx46XMjWRbHKl4As+GPEF67o0BOlKI28GDiLK1
CjANUC4PBntaq2BlG6xH2tXsuZfvjQuv0HnoH36ORMGQIqNBb2VYSbC+fDOnG5mc
P4SUESQ7p4n/Ctbg+y+0YhuiW7bzHdr3ti6O+xrvYipcEvuGeOPg4lHAs/Munoi7
ne5dnTGiZf8UwWh92LS34GQgZPr00oixDWRE7w2VjHq2birLlXm81RniwfP3z94Y
XUZcKrIBgKUJQbKPLQISYJyBJeRZ5qIbEYEq2yB92I8xvpC5u/UagwAHY29sbGF0
ZUMAAAYBBWR1bW15AHNNDQIgrmK4nAm6aSUj5qf4ZvZTz5zoju7H0gwxMp8b3sNs
NcsCAm5zB2NvbGxhdGUAkr4DqAHAMIusAAB3SQIAxwAP/CiQ3ZpmlJdKhvF0tp5r
9cbjCH5aZCmkMrQoZNSDYwD+QEIPAP6AlpgAAjCCA08GCysGAQQBg6h4BYxVBIID
PgG7AAAEXzQ0MwRfdGNwB2NvbGxhdGUAADQAAQAAASwAIwMBAVkVjInwLddpLdbF
2NuxdQ54srnKM6ZhylKJxhj0LY5PBF80NDMEX3RjcAdjb2xsYXRlAAA0AAEAAAEs
AAcDAQHerb7vBF80NDMEX3RjcAdjb2xsYXRlAAAuAAEAAAEsAFsANA0DAAABLGXE
GYBlqGoAc00HY29sbGF0ZQCxXatB7PjcLKWiGK3nknaRKHsX0WOAVWcWB3UfiR1i
sCYZ4snKyt3KiZ21w+cHkLcnaw2Q2yg0GgLHY8sGcVq4B2NvbGxhdGUAADAAAQAA
DhAARAEBAw2qlObpoKfKdI2HtTNexjnEYStKvUgg7W1kND3xhsvPNdqRnkZ+VXkS
iGT9LrUL+GJLxLg3M+Gmhre0fc+BsITlB2NvbGxhdGUAAC4AAQAADhAAWwAwDQEA
AA4QZcQZgGWoagBzTQdjb2xsYXRlADVVpDo6nCibKoaVitgMFR52WVT7Gqsx71fp
v7DFFd/hoEu/Pj3qZ0S5buC+TEzU8e5H3HDIESnRljdx68lMl1sHY29sbGF0ZQAA
KwABAAA/KgAkc00NAq5iuJwJumklI+an+Gb2U8+c6I7ux9IMMTKfG97DbDXLB2Nv
bGxhdGUAAC4AAQAAFPoAUwArDQEAAFRgZ5efqGW1GqjuEAD016WMno8EQ31E4CwO
i4zN4OKEiW83QCTsWUVR37AscXikBRsB+67lRI70jTMVQJAdiarx1WClSfPRGdXM
CQUNAAAwAAEAAB0EAEQBAQMNT9cURJ2M/Mz9q6UsZNY+Ospyvj+Uv+tgrrWkLtPQ
wgU/Xu5Yk0l02Sn5ua2xAQfEYIzRO6v5iA+BejMeEwNP4QAAMAABAAAdBABEAQAD
DSOZz7OnJRWtYJ8J/SKVQxnSS3xDjc4A9TXH7hMBCFbiKB3WRoL1W5bCzW0TvrKV
t50GB4PdrL4ctRzo04hQSLEAAC4AAQAAHQQAUwAwDQAAACowZ5ensmW1IrKJjwAY
++KfxayUyCRFTDRBm4FRDCDHdlrAbO6ENH5A7aveQyMG2hvRQWMRJntH5NEMP4X6
zDvPELHsSBrolxVEWU+rMB0GA1UdDgQWBBQVJBnrMvhag6fbYCqy/btuj6ujeTAN
BgkqhkiG9w0BAQsFAAOCAgEAKss3DWK6kRwxnS0y/hUcsOEw1WhMqN2awvxQl6Kk
SI9zv/PpAC4QxPvBRpAR1cvuEb6voxNRS4BzufpXLfpkJFbkiuacnQNKGSID2rjP
euZFoTOIIi64ITqy5IKVQ9CoUkz+aV1e5bYXaRHt1b6hABIGDuMMjoXPIKR7XJGE
8WrSmKwk3KQZMOoVs9YKV/QlwCApaILdxZvBYKY3mfuwz1cabBnJ5AW2lChGWj/X
h+HuhzoIZpeswMELZLMaGOlK9SD6WBk+mKDjt4MHOXqc5iY0lD3cUlNn4B4+QQmg
5nhdz82lkSapvoHG11a3WqQ8voCBANwtY42sk+/bDaVnJakO/jWkBxRGnXes0zgI
2WwxJjkyd1dPTgOhZkTImt4vq8PL1JesXR8e/zfAnL3sLjJF4MwIP/bLodHa7RIN
kkUsMhgrEhVGtx6FEVOa8/JlwEaL8i+9X6KCrTIv59wa7QcdccaFwvzC53+8k4eg
SbI9oj3UkknGhBoOQZf4WK+3nFoPSm071eNYBKuLmw1pSKeAQ4KZ0YfrbXje3O08
mwxkFGK7eQWqCnRIIfQQHcDGCS9c9uSwFh1Q5RvjoJC3LVDf8mtWAs+3m5cb8W4E
R4AYI8bngcprt1/1VLHWPBInIpKdIW9wtanDyAPsCWDX7gaLLWzolYvrV+WTzfhf
uU4=
-----END CERTIFICATE-----
