Certificate:
    Data:
        Version: 1 (0x0)
        Serial Number: 2 (0x2)
        Signature Algorithm: sha256WithRSAEncryption
        Issuer: C=AU, ST=Some-State, O=Internet Widgits Pty Ltd
        Validity
            Not Before: Jan 19 14:34:37 2024 GMT
            Not After : Jan 18 14:34:37 2025 GMT
        Subject: CN=collate
        Subject Public Key Info:
            Public Key Algorithm: rsaEncryption
                Public-Key: (4096 bit)
                Modulus:
                    00:e8:bc:75:7f:da:5d:14:70:f9:a4:54:b6:59:19:
                    db:85:42:19:69:ad:c2:cd:39:2d:3c:f4:ec:df:ac:
                    c5:1f:ce:b5:c0:5e:d7:ab:fc:c7:90:01:27:2f:a5:
                    10:1e:eb:56:7c:77:91:2f:21:34:71:27:dc:dd:1e:
                    15:ca:d0:e4:ca:63:7e:09:47:a4:ff:03:58:50:ee:
                    12:a9:97:88:bd:96:60:9f:76:21:91:a3:4c:60:b4:
                    7f:08:f0:b2:0f:2f:51:2b:df:80:66:01:c4:11:ba:
                    51:40:32:eb:59:d7:18:d2:28:53:40:69:1b:35:88:
                    e2:8c:5a:43:f1:77:ed:3e:ee:31:ae:7e:e9:99:79:
                    f8:db:4f:a3:2e:f2:de:8c:ab:77:85:a0:91:e3:5a:
                    60:f3:9e:ab:b3:d8:36:4a:19:6e:41:c6:39:84:1d:
                    c4:82:9a:42:5d:8a:af:4a:fc:c8:0b:de:45:ce:56:
                    be:0a:71:71:1e:8d:b9:40:1c:85:0b:de:29:d3:69:
                    4e:cb:7f:98:f7:24:a3:50:69:e3:1d:90:ab:37:3d:
                    8f:58:d1:14:21:a9:1b:51:00:bd:88:42:d4:14:38:
                    47:0a:24:5d:2b:e6:f4:3e:95:8f:8e:22:3a:af:27:
                    0a:1e:0f:05:e7:8a:22:c3:4b:fb:ee:9e:a4:d1:65:
                    1d:15:d2:91:b3:6f:1a:ed:46:75:7f:c2:ad:e6:e3:
                    f8:79:9e:1b:05:64:51:89:08:a4:b6:ae:e2:66:94:
                    96:4f:0f:e7:07:d4:53:9b:b3:97:d8:55:05:f0:c6:
                    db:c1:99:8f:c0:29:d4:e9:f8:92:4a:94:43:2e:66:
                    e5:bf:66:af:60:4d:b3:65:ed:e5:39:9b:cb:09:7d:
                    2e:bd:7b:89:de:c5:3b:13:6f:9a:90:95:f2:1c:fd:
                    c7:bd:7a:a0:1a:12:9a:71:30:cc:19:02:f9:8c:93:
                    ab:84:05:dd:1c:63:cb:37:18:7e:6b:63:37:c6:75:
                    8f:57:d9:75:1c:90:e3:51:0b:a0:2c:48:f4:a9:b7:
                    77:5c:e6:d4:65:03:02:17:0d:62:04:95:39:25:65:
                    26:65:df:08:1e:5a:f8:ef:e7:56:f8:13:d1:db:73:
                    28:8c:84:0d:40:9f:04:4f:d5:73:4e:17:f5:89:f6:
                    87:c1:fd:b1:b7:4e:77:60:43:bf:42:56:f9:5d:5f:
                    2a:2e:9a:bd:2f:10:a0:d9:b6:9a:e6:5d:6e:f1:9b:
                    f1:3a:78:4b:40:98:81:72:bd:9d:b3:e0:02:8e:a4:
                    a1:ff:9a:15:21:ff:c1:ee:05:89:9e:6c:bc:10:85:
                    f0:5c:66:ab:a2:ad:0e:df:9c:24:f8:7b:4f:36:1d:
                    7f:0c:83
                Exponent: 65537 (0x10001)
    Signature Algorithm: sha256WithRSAEncryption
    Signature Value:
        06:2b:19:9f:46:98:d7:f4:57:db:f8:88:05:04:33:f5:88:28:
        f4:16:cb:b1:15:e5:0a:3a:71:56:de:39:06:33:53:65:89:63:
        33:da:65:4a:0f:ec:4f:3b:90:f0:b0:76:04:5f:59:e5:47:06:
        7f:92:81:66:bf:ff:de:6d:3c:7e:78:50:ca:49:fd:4d:ef:68:
        d0:15:67:53:c5:d7:e8:06:39:db:d6:02:6b:87:33:c3:5d:db:
        44:be:30:38:5a:74:35:45:22:82:7f:98:54:bf:5f:40:b0:fb:
        6b:3a:93:a4:4d:0b:67:e1:d7:3e:38:d8:ba:7e:50:dd:86:67:
        8d:8c:92:4e:10:95:0a:11:82:86:86:c4:2d:e1:70:00:eb:52:
        26:87:02:d7:1e:ad:5a:3a:00:3a:00:88:f5:db:77:fe:c2:7a:
        a7:69:25:cd:8b:d0:7a:78:a2:5c:a5:cc:87:d6:af:a0:59:43:
        c1:d8:67:d9:f3:34:cc:79:10:e3:f8:4f:60:ef:45:55:f4:15:
        6c:6b:a3:4b:10:12:c2:42:7e:e2:e9:88:56:cf:af:be:c6:27:
        ef:99:8f:eb:df:39:a9:f4:99:3b:6c:b1:63:f9:77:e6:55:21:
        a0:5b:2b:e5:54:a9:0b:93:57:74:a2:a9:f6:18:69:7e:cb:16:
        66:49:5a:4e:a4:ff:57:3b:b1:cc:91:9b:c8:84:47:a4:b8:3c:
        02:f1:73:a7:ed:ef:c2:e8:65:e3:6a:2b:13:7c:13:cb:69:c3:
        53:3a:07:ea:e2:ec:02:d8:42:3b:5c:36:42:49:e6:aa:09:c3:
        44:31:bc:32:f5:bc:0b:1b:cc:58:24:61:ac:b8:96:f5:5e:b8:
        4f:28:aa:7c:ef:ec:a6:bf:5f:98:3d:a0:f2:a6:0b:12:a0:6c:
        1f:1f:54:c9:d8:ea:db:6d:4d:04:80:27:72:06:12:37:21:31:
        32:62:f7:04:c1:dc:77:a0:32:78:0b:85:1e:66:62:d3:d2:91:
        9b:0d:ed:3a:42:c0:6f:e6:bd:dc:72:31:cf:38:9a:50:9f:fd:
        7c:82:f5:55:6e:35:e4:db:0e:8f:38:07:48:51:f6:27:9f:90:
        be:24:51:f2:f9:09:ec:90:47:ed:ea:2f:1a:33:87:37:8c:bb:
        54:32:e8:6f:41:09:ed:90:f4:80:be:b6:e8:d0:59:66:80:11:
        da:97:ec:8c:8a:97:bd:be:28:dd:64:70:c1:44:79:a7:1c:fe:
        f6:2e:08:54:e3:b9:c4:8c:bb:07:a0:53:aa:82:55:d0:f6:28:
        20:02:96:0b:f8:73:54:7c:6c:25:bd:d7:4a:2a:d9:1c:25:50:
        4a:ff:26:8f:62:5c:6f:1e
-----BEGIN CERTIFICATE-----
MIIEyzCCArMCAQIwDQYJKoZIhvcNAQELBQAwRTELMAkGA1UEBhMCQVUxEzARBgNV
BAgMClNvbWUtU3RhdGUxITAfBgNVBAoMGEludGVybmV0IFdpZGdpdHMgUHR5IEx0
ZDAeFw0yNDAxMTkxNDM0MzdaFw0yNTAxMTgxNDM0MzdaMBIxEDAOBgNVBAMMB2Nv
bGxhdGUwggIiMA0GCSqGSIb3DQEBAQUAA4ICDwAwggIKAoICAQDovHV/2l0UcPmk
VLZZGduFQhlprcLNOS089OzfrMUfzrXAXter/MeQAScvpRAe61Z8d5EvITRxJ9zd
HhXK0OTKY34JR6T/A1hQ7hKpl4i9lmCfdiGRo0xgtH8I8LIPL1Er34BmAcQRulFA
MutZ1xjSKFNAaRs1iOKMWkPxd+0+7jGufumZefjbT6Mu8t6Mq3eFoJHjWmDznquz
2DZKGW5BxjmEHcSCmkJdiq9K/MgL3kXOVr4KcXEejblAHIUL3inTaU7Lf5j3JKNQ
aeMdkKs3PY9Y0RQhqRtRAL2IQtQUOEcKJF0r5vQ+lY+OIjqvJwoeDwXniiLDS/vu
nqTRZR0V0pGzbxrtRnV/wq3m4/h5nhsFZFGJCKS2ruJmlJZPD+cH1FObs5fYVQXw
xtvBmY/AKdTp+JJKlEMuZuW/Zq9gTbNl7eU5m8sJfS69e4nexTsTb5qQlfIc/ce9
eqAaEppxMMwZAvmMk6uEBd0cY8s3GH5rYzfGdY9X2XUckONRC6AsSPSpt3dc5tRl
AwIXDWIElTklZSZl3wgeWvjv51b4E9HbcyiMhA1AnwRP1XNOF/WJ9ofB/bG3Tndg
Q79CVvldXyoumr0vEKDZtprmXW7xm/E6eEtAmIFyvZ2z4AKOpKH/mhUh/8HuBYme
bLwQhfBcZquirQ7fnCT4e082HX8MgwIDAQABMA0GCSqGSIb3DQEBCwUAA4ICAQAG
KxmfRpjX9Ffb+IgFBDP1iCj0FsuxFeUKOnFW3jkGM1NliWMz2mVKD+xPO5DwsHYE
X1nlRwZ/koFmv//ebTx+eFDKSf1N72jQFWdTxdfoBjnb1gJrhzPDXdtEvjA4WnQ1
RSKCf5hUv19AsPtrOpOkTQtn4dc+ONi6flDdhmeNjJJOEJUKEYKGhsQt4XAA61Im
hwLXHq1aOgA6AIj123f+wnqnaSXNi9B6eKJcpcyH1q+gWUPB2GfZ8zTMeRDj+E9g
70VV9BVsa6NLEBLCQn7i6YhWz6++xifvmY/r3zmp9Jk7bLFj+XfmVSGgWyvlVKkL
k1d0oqn2GGl+yxZmSVpOpP9XO7HMkZvIhEekuDwC8XOn7e/C6GXjaisTfBPLacNT
Ogfq4uwC2EI7XDZCSeaqCcNEMbwy9bwLG8xYJGGsuJb1XrhPKKp87+ymv1+YPaDy
pgsSoGwfH1TJ2OrbbU0EgCdyBhI3ITEyYvcEwdx3oDJ4C4UeZmLT0pGbDe06QsBv
5r3ccjHPOJpQn/18gvVVbjXk2w6POAdIUfYnn5C+JFHy+QnskEft6i8aM4c3jLtU
MuhvQQntkPSAvrbo0FlmgBHal+yMipe9vijdZHDBRHmnHP72LghU47nEjLsHoFOq
glXQ9iggApYL+HNUfGwlvddKKtkcJVBK/yaPYlxvHg==
-----END CERTIFICATE-----
