Certificate:
    Data:
        Version: 3 (0x2)
        Serial Number: 4 (0x4)
        Signature Algorithm: sha256WithRSAEncryption
        Issuer: C=AU, ST=Some-State, O=Internet Widgits Pty Ltd
        Validity
            Not Before: Jan 19 18:18:13 2024 GMT
            Not After : Jan 18 18:18:13 2025 GMT
        Subject: C=AU, ST=Some-State, O=Internet Widgits Pty Ltd
        Subject Public Key Info:
            Public Key Algorithm: rsaEncryption
                Public-Key: (2048 bit)
                Modulus:
                    00:ac:28:71:76:ee:e5:b7:40:e4:52:78:39:51:2c:
                    42:ff:2c:35:29:94:52:84:8f:3b:3d:2b:c1:29:f2:
                    c8:c2:b1:42:ef:65:07:4f:54:e1:b0:78:30:f9:e4:
                    54:d1:5a:00:f3:17:65:f5:95:df:f5:3c:02:45:13:
                    dc:e8:1c:a5:6a:73:48:aa:a7:49:5e:0f:fa:ed:a5:
                    67:9c:7e:47:c4:b2:da:b5:05:4c:87:6c:09:95:7e:
                    82:c2:7c:5b:6e:2f:23:f6:ac:60:95:bf:4d:bf:5b:
                    70:a4:07:08:bb:79:13:f2:94:89:3c:7b:97:78:57:
                    02:3b:e0:f4:14:37:07:24:b2:f5:10:41:f4:2c:65:
                    0b:8c:36:11:a6:ec:cb:00:92:66:18:c6:0b:fd:30:
                    c6:5e:db:64:28:64:f1:53:07:cc:dc:fb:b5:9e:aa:
                    19:f4:cc:87:a2:07:99:ea:40:b3:bb:12:a3:99:29:
                    0f:47:f3:3c:52:1a:f8:44:9a:6a:b4:29:27:e9:52:
                    e5:22:56:31:7f:3c:9c:19:55:4a:3b:04:06:a5:d0:
                    45:11:2d:59:8e:6e:15:52:61:d2:54:1e:19:0a:68:
                    5e:40:d7:4c:e0:e2:94:1d:6f:09:f8:b7:8b:aa:ac:
                    ee:d4:5b:5e:a8:ff:4c:79:ff:39:9c:90:c5:6a:85:
                    2b:ad
                Exponent: 65537 (0x10001)
        X509v3 extensions:
            X509v3 Subject Alternative Name: 
                DNS:collate, DNS:*.collate
            X509v3 Certificate Policies: 
                Policy: 1.2.3.4
            X509v3 Subject Key Identifier: 
                14:11:03:C7:D6:02:50:5D:53:84:0E:0B:44:FE:74:0B:EF:AC:22:A3
            X509v3 Authority Key Identifier: 
                15:24:19:EB:32:F8:5A:83:A7:DB:60:2A:B2:FD:BB:6E:8F:AB:A3:79
    Signature Algorithm: sha256WithRSAEncryption
    Signature Value:
        22:5d:0e:75:57:ba:a9:3b:15:51:14:df:df:a6:f1:4e:6e:ac:
        4a:4f:42:60:d4:0e:27:45:20:41:4c:02:8d:6c:21:fe:49:4e:
        45:d7:a7:24:ce:0c:46:5a:05:74:da:d4:91:77:94:7a:5a:92:
        d1:05:64:5c:af:69:0c:42:77:34:51:fe:df:9d:ce:03:11:b5:
        e2:81:d5:2f:15:3a:08:83:66:99:3f:2a:4e:b0:ea:10:e4:f9:
        c2:22:34:5d:d5:93:a6:21:66:d0:d9:7c:a1:2e:3d:b5:41:0a:
        09:ce:14:47:cc:8f:1f:16:bf:fe:3d:1e:28:d3:ad:c2:13:02:
        d5:b9:66:95:a2:b7:97:bf:4e:00:70:02:a7:6a:fd:b9:3a:74:
        78:01:aa:4b:95:b9:5c:a0:93:1b:53:28:7f:40:08:bd:6f:7c:
        5c:03:06:2f:6d:2f:ea:f7:ed:d9:fc:f5:fb:4f:a9:8d:e1:59:
        c6:c5:3f:19:63:ca:43:86:63:8c:70:9b:fe:4b:8d:a0:45:cb:
        03:f3:97:79:08:5b:88:f8:d7:2b:82:47:90:05:3f:b1:70:7a:
        44:24:f8:2e:d3:7b:54:a4:5a:41:78:4a:c8:54:71:f5:5d:05:
        b4:88:9d:6f:cc:75:08:97:f4:3c:c1:46:d0:43:3b:19:8b:2e:
        57:5e:1f:5d:b2:c8:14:e4:3d:a9:e7:4d:7c:37:69:56:b1:d0:
        8e:6c:6f:06:96:22:1f:20:bf:0a:d3:b9:67:cc:5f:ee:2e:a1:
        7c:73:b8:47:d7:83:ca:8d:d8:ce:74:8d:ba:96:70:8d:f1:4a:
        28:44:4d:3f:c3:2b:bc:dd:88:03:ba:b2:ca:ca:28:42:3f:a5:
        39:0b:49:c5:d4:43:02:6c:78:77:64:85:3b:54:2f:5d:52:47:
        5d:32:bd:33:78:0b:c3:b1:0d:73:28:62:01:19:c8:92:e4:03:
        c3:1f:41:6a:cd:e0:ed:f4:31:11:25:72:f7:b9:29:1e:b0:b2:
        47:33:1f:11:e3:eb:8d:d6:f8:4c:0e:e3:95:9f:45:12:6c:81:
        d9:63:81:d1:9b:27:9d:db:55:5b:cc:d4:86:3f:53:aa:04:4f:
        95:da:16:1e:a6:10:0d:f7:1d:95:b7:06:9a:a9:29:0b:9c:b5:
        50:71:1a:92:a9:e7:ba:40:2c:d3:bd:27:ed:a0:e8:56:b4:fe:
        8c:61:75:40:c5:65:d7:0f:fe:f2:92:26:d9:95:76:99:42:65:
        9a:c1:04:22:05:98:09:73:a0:45:ab:c6:9c:4b:14:0e:60:89:
        5e:c6:a6:3c:b0:e8:7f:4c:d4:23:d8:b2:2f:c5:4a:1a:0a:c2:
        be:6d:48:ce:60:3b:f1:eb
-----BEGIN CERTIFICATE-----
MIIEeDCCAmCgAwIBAgIBBDANBgkqhkiG9w0BAQsFADBFMQswCQYDVQQGEwJBVTET
MBEGA1UECAwKU29tZS1TdGF0ZTEhMB8GA1UECgwYSW50ZXJuZXQgV2lkZ2l0cyBQ
dHkgTHRkMB4XDTI0MDExOTE4MTgxM1oXDTI1MDExODE4MTgxM1owRTELMAkGA1UE
BhMCQVUxEzARBgNVBAgMClNvbWUtU3RhdGUxITAfBgNVBAoMGEludGVybmV0IFdp
ZGdpdHMgUHR5IEx0ZDCCASIwDQYJKoZIhvcNAQEBBQADggEPADCCAQoCggEBAKwo
cXbu5bdA5FJ4OVEsQv8sNSmUUoSPOz0rwSnyyMKxQu9lB09U4bB4MPnkVNFaAPMX
ZfWV3/U8AkUT3OgcpWpzSKqnSV4P+u2lZ5x+R8Sy2rUFTIdsCZV+gsJ8W24vI/as
YJW/Tb9bcKQHCLt5E/KUiTx7l3hXAjvg9BQ3BySy9RBB9CxlC4w2EabsywCSZhjG
C/0wxl7bZChk8VMHzNz7tZ6qGfTMh6IHmepAs7sSo5kpD0fzPFIa+ESaarQpJ+lS
5SJWMX88nBlVSjsEBqXQRREtWY5uFVJh0lQeGQpoXkDXTODilB1vCfi3i6qs7tRb
Xqj/THn/OZyQxWqFK60CAwEAAaNzMHEwHQYDVR0RBBYwFIIHY29sbGF0ZYIJKi5j
b2xsYXRlMBAGA1UdIAQJMAcwBQYDKgMEMB0GA1UdDgQWBBQUEQPH1gJQXVOEDgtE
/nQL76wiozAfBgNVHSMEGDAWgBQVJBnrMvhag6fbYCqy/btuj6ujeTANBgkqhkiG
9w0BAQsFAAOCAgEAIl0OdVe6qTsVURTf36bxTm6sSk9CYNQOJ0UgQUwCjWwh/klO
RdenJM4MRloFdNrUkXeUelqS0QVkXK9pDEJ3NFH+353OAxG14oHVLxU6CINmmT8q
TrDqEOT5wiI0XdWTpiFm0Nl8oS49tUEKCc4UR8yPHxa//j0eKNOtwhMC1blmlaK3
l79OAHACp2r9uTp0eAGqS5W5XKCTG1Mof0AIvW98XAMGL20v6vft2fz1+0+pjeFZ
xsU/GWPKQ4ZjjHCb/kuNoEXLA/OXeQhbiPjXK4JHkAU/sXB6RCT4LtN7VKRaQXhK
yFRx9V0FtIidb8x1CJf0PMFG0EM7GYsuV14fXbLIFOQ9qedNfDdpVrHQjmxvBpYi
HyC/CtO5Z8xf7i6hfHO4R9eDyo3YznSNupZwjfFKKERNP8MrvN2IA7qyysooQj+l
OQtJxdRDAmx4d2SFO1QvXVJHXTK9M3gLw7ENcyhiARnIkuQDwx9Bas3g7fQxESVy
97kpHrCyRzMfEePrjdb4TA7jlZ9FEmyB2WOB0ZsnndtVW8zUhj9TqgRPldoWHqYQ
DfcdlbcGmqkpC5y1UHEakqnnukAs070n7aDoVrT+jGF1QMVl1w/+8pIm2ZV2mUJl
msEEIgWYCXOgRavGnEsUDmCJXsamPLDof0zUI9iyL8VKGgrCvm1IzmA78es=
-----END CERTIFICATE-----
