Certificate:
    Data:
        Version: 3 (0x2)
        Serial Number: 9 (0x9)
        Signature Algorithm: sha256WithRSAEncryption
        Issuer: C=AU, ST=Some-State, O=Internet Widgits Pty Ltd
        Validity
            Not Before: Jan 28 03:12:33 2024 GMT
            Not After : Jan 27 03:12:33 2025 GMT
        Subject: C=US, ST=California, L=San Francisco, O=My Company, CN=John Doe/emailAddress=john.doe@example.com
        Subject Public Key Info:
            Public Key Algorithm: rsaEncryption
                Public-Key: (4096 bit)
                Modulus:
                    00:e8:bc:75:7f:da:5d:14:70:f9:a4:54:b6:59:19:
                    db:85:42:19:69:ad:c2:cd:39:2d:3c:f4:ec:df:ac:
                    c5:1f:ce:b5:c0:5e:d7:ab:fc:c7:90:01:27:2f:a5:
                    10:1e:eb:56:7c:77:91:2f:21:34:71:27:dc:dd:1e:
                    15:ca:d0:e4:ca:63:7e:09:47:a4:ff:03:58:50:ee:
                    12:a9:97:88:bd:96:60:9f:76:21:91:a3:4c:60:b4:
                    7f:08:f0:b2:0f:2f:51:2b:df:80:66:01:c4:11:ba:
                    51:40:32:eb:59:d7:18:d2:28:53:40:69:1b:35:88:
                    e2:8c:5a:43:f1:77:ed:3e:ee:31:ae:7e:e9:99:79:
                    f8:db:4f:a3:2e:f2:de:8c:ab:77:85:a0:91:e3:5a:
                    60:f3:9e:ab:b3:d8:36:4a:19:6e:41:c6:39:84:1d:
                    c4:82:9a:42:5d:8a:af:4a:fc:c8:0b:de:45:ce:56:
                    be:0a:71:71:1e:8d:b9:40:1c:85:0b:de:29:d3:69:
                    4e:cb:7f:98:f7:24:a3:50:69:e3:1d:90:ab:37:3d:
                    8f:58:d1:14:21:a9:1b:51:00:bd:88:42:d4:14:38:
                    47:0a:24:5d:2b:e6:f4:3e:95:8f:8e:22:3a:af:27:
                    0a:1e:0f:05:e7:8a:22:c3:4b:fb:ee:9e:a4:d1:65:
                    1d:15:d2:91:b3:6f:1a:ed:46:75:7f:c2:ad:e6:e3:
                    f8:79:9e:1b:05:64:51:89:08:a4:b6:ae:e2:66:94:
                    96:4f:0f:e7:07:d4:53:9b:b3:97:d8:55:05:f0:c6:
                    db:c1:99:8f:c0:29:d4:e9:f8:92:4a:94:43:2e:66:
                    e5:bf:66:af:60:4d:b3:65:ed:e5:39:9b:cb:09:7d:
                    2e:bd:7b:89:de:c5:3b:13:6f:9a:90:95:f2:1c:fd:
                    c7:bd:7a:a0:1a:12:9a:71:30:cc:19:02:f9:8c:93:
                    ab:84:05:dd:1c:63:cb:37:18:7e:6b:63:37:c6:75:
                    8f:57:d9:75:1c:90:e3:51:0b:a0:2c:48:f4:a9:b7:
                    77:5c:e6:d4:65:03:02:17:0d:62:04:95:39:25:65:
                    26:65:df:08:1e:5a:f8:ef:e7:56:f8:13:d1:db:73:
                    28:8c:84:0d:40:9f:04:4f:d5:73:4e:17:f5:89:f6:
                    87:c1:fd:b1:b7:4e:77:60:43:bf:42:56:f9:5d:5f:
                    2a:2e:9a:bd:2f:10:a0:d9:b6:9a:e6:5d:6e:f1:9b:
                    f1:3a:78:4b:40:98:81:72:bd:9d:b3:e0:02:8e:a4:
                    a1:ff:9a:15:21:ff:c1:ee:05:89:9e:6c:bc:10:85:
                    f0:5c:66:ab:a2:ad:0e:df:9c:24:f8:7b:4f:36:1d:
                    7f:0c:83
                Exponent: 65537 (0x10001)
        X509v3 extensions:
            X509v3 Basic Constraints: 
                CA:FALSE
            X509v3 Key Usage: 
                Digital Signature, Non Repudiation, Key Encipherment
            X509v3 Subject Alternative Name: 
                DNS:example.com, DNS:collate, DNS:additionaldomain.com
            1.3.6.1.4.1.54392.5.1620: 
                .mc.dr."..Y.R..n....q.[.....G_...........O.....Jm..L.Hr.@8AC.gh.(.rz.....T.XC..p.I.Z>.N..E..d...QRG..2...(...'l.BGk,............m..1.'....x.........K-:.i}|%...j..
..H$L.[EEt.n....%..7w...%..lN.DA.X.....F....`..DT..t. {.C....Z<R........q.Y..gj>I....|nw.....)u^....u...)sW . ..........<0..>..}.....o...x........:..w.}:..g....@....I._...0K...'..=X....a.:c.s..........F.*..@.....p..(d.">...+.....N..}.-.[..........N...C..BOr.UQ.C.3K]..oxF....Ub..,B....k.z.=7h9......|...&.......]....A......g..UjM.....y....P=.e...........F.!W'k.l..^.t....q....d[..x...<Az...:R.......
0P...{Z.`e..G..........y..~.D..".AoeXI..|3....?...$;...
.../.b..[...........b*\...x...Q.........].1.e...h}....d d.....dD...z.n*..y..........]F\*.....A..-..`..%.Y.....*. }..1.........collateC.....dummy.sM. .b....i%#...f.S........12....l5...ns.collate.......0....wI......(...f..J..t..k....~Zd).2.(d..c..@B........
            1.3.6.1.4.1.54392.5.1621: 
                ....._443._tcp.collate..4.......#...Y....-.i-.....u.x...3.a.R....-.O._443._tcp.collate..........[.4.....e...e./.sM.collate.j.e.C...0.;....N..i..=.h.m.{....`....M..C.j....L...k:e...[Xcz...collate..0.......D..........t...3^.9.a+J.H .md4=....5...F~Uy..d.....bK..73.....}......collate..........[.0.....e...e./.sM.collate..h..W.op..6.t[.....tg.F-.`.1T......s.y.6......$X....TQ..9....*.collate..+....T_.$sM..b....i%#...f.S........12....l5..collate.......*/.S.+...T`e./.e.E....Z.....3...@.....d...Au.6.R.w].. O....@.{...NV.`.4....+45Y.....C...0....*/.D...O..D.......,d.>:.r.?...`........?^.X.It.).......`..;.....z3...O...0....*/.D...#....%..`...".C..K|C....5.....V.(..F..[...m..................PH........*/.S.0...*0e./.e.E.....L..z.A..)BM...r..3.re...{&H../A.4A......M..u+G0.l..0.......G...
            X509v3 Subject Key Identifier: 
                15:24:19:EB:32:F8:5A:83:A7:DB:60:2A:B2:FD:BB:6E:8F:AB:A3:79
    Signature Algorithm: sha256WithRSAEncryption
    Signature Value:
        d9:c3:f1:0a:eb:f7:24:af:d2:21:91:71:42:4c:73:b1:2e:64:
        d1:6d:3c:73:23:1f:10:5f:b7:74:d9:8e:b8:0f:03:67:1c:84:
        9d:db:9e:68:ee:00:79:f9:c2:dd:69:1e:0b:35:b7:c2:c7:da:
        b3:05:73:03:2f:e5:c0:e6:a5:51:01:be:bf:8f:15:e1:b8:8b:
        ce:47:87:41:71:57:6e:3a:9c:bf:64:2d:6b:2e:f3:07:fa:d6:
        66:34:a3:81:55:e8:00:e7:bd:99:dc:8a:39:31:46:b2:d0:c9:
        13:a4:c4:01:aa:1e:39:f7:3a:65:2f:fc:a9:0e:b9:d7:6f:1d:
        78:62:01:05:e8:72:69:17:f2:d2:c6:f0:0f:b1:eb:6b:09:81:
        d7:8b:4d:6d:13:34:d9:8e:91:d6:0f:6a:0d:42:cd:e1:18:90:
        ea:33:5a:f5:02:b0:85:39:e0:95:44:6e:d3:10:d9:9c:66:3b:
        c7:d2:ee:36:34:93:86:a2:65:9f:51:81:89:97:f8:5e:68:42:
        bd:54:9c:74:37:0c:49:ff:43:31:c5:1d:8e:c2:51:b3:1e:0b:
        1e:55:7b:4f:cc:66:3a:bd:05:5d:4b:c2:fc:8e:33:fa:75:08:
        dd:78:58:41:46:b4:1a:24:43:fa:3b:60:dc:d5:e7:54:7d:a2:
        56:e1:0e:c0:28:66:d7:a2:75:7c:d3:ed:b3:b4:6e:fb:1d:69:
        46:4a:9f:2f:f6:56:35:a1:df:6f:0c:20:ab:0c:13:bc:f0:8f:
        19:fa:89:d8:de:bb:52:c1:57:18:df:40:ed:a1:f7:21:cb:c3:
        66:d9:26:77:96:91:36:78:9d:50:2f:6b:17:ad:18:42:cc:37:
        1a:fd:a0:8e:66:b5:58:04:0c:24:61:0a:3b:27:86:aa:f0:00:
        a1:a7:3a:44:19:e7:44:78:d3:7d:87:ff:0b:4b:b1:bf:1a:f9:
        f0:6f:5a:78:9d:17:7a:d2:1e:46:a0:98:36:d4:60:a1:c1:50:
        fd:3e:b3:4e:b8:50:c5:03:fc:bb:b6:99:5c:c8:a4:d0:72:9d:
        45:01:2a:54:98:40:6f:06:d2:21:45:ee:be:6b:e4:b7:5e:08:
        3b:5b:3b:dd:0a:c1:94:68:45:ae:9c:67:97:d8:22:6c:b3:e8:
        46:ac:85:c2:21:46:aa:4c:41:c1:ff:58:c8:d0:15:7b:63:24:
        08:93:b3:14:61:5b:ab:8e:17:09:03:6a:0a:52:8a:59:37:1b:
        33:28:d3:b2:42:d9:8b:19:ca:1c:21:c8:b1:a7:ab:e0:3a:d6:
        b1:6c:61:b7:c2:52:c2:16:c3:3a:c4:b7:e2:64:45:3b:46:d7:
        a9:b5:8c:43:27:8d:d5:5c
-----BEGIN CERTIFICATE-----
MIIMbzCCClegAwIBAgIBCTANBgkqhkiG9w0BAQsFADBFMQswCQYDVQQGEwJBVTET
MBEGA1UECAwKU29tZS1TdGF0ZTEhMB8GA1UECgwYSW50ZXJuZXQgV2lkZ2l0cyBQ
dHkgTHRkMB4XDTI0MDEyODAzMTIzM1oXDTI1MDEyNzAzMTIzM1owgYcxCzAJBgNV
BAYTAlVTMRMwEQYDVQQIDApDYWxpZm9ybmlhMRYwFAYDVQQHDA1TYW4gRnJhbmNp
c2NvMRMwEQYDVQQKDApNeSBDb21wYW55MREwDwYDVQQDDAhKb2huIERvZTEjMCEG
CSqGSIb3DQEJARYUam9obi5kb2VAZXhhbXBsZS5jb20wggIiMA0GCSqGSIb3DQEB
AQUAA4ICDwAwggIKAoICAQDovHV/2l0UcPmkVLZZGduFQhlprcLNOS089OzfrMUf
zrXAXter/MeQAScvpRAe61Z8d5EvITRxJ9zdHhXK0OTKY34JR6T/A1hQ7hKpl4i9
lmCfdiGRo0xgtH8I8LIPL1Er34BmAcQRulFAMutZ1xjSKFNAaRs1iOKMWkPxd+0+
7jGufumZefjbT6Mu8t6Mq3eFoJHjWmDznquz2DZKGW5BxjmEHcSCmkJdiq9K/MgL
3kXOVr4KcXEejblAHIUL3inTaU7Lf5j3JKNQaeMdkKs3PY9Y0RQhqRtRAL2IQtQU
OEcKJF0r5vQ+lY+OIjqvJwoeDwXniiLDS/vunqTRZR0V0pGzbxrtRnV/wq3m4/h5
nhsFZFGJCKS2ruJmlJZPD+cH1FObs5fYVQXwxtvBmY/AKdTp+JJKlEMuZuW/Zq9g
TbNl7eU5m8sJfS69e4nexTsTb5qQlfIc/ce9eqAaEppxMMwZAvmMk6uEBd0cY8s3
GH5rYzfGdY9X2XUckONRC6AsSPSpt3dc5tRlAwIXDWIElTklZSZl3wgeWvjv51b4
E9HbcyiMhA1AnwRP1XNOF/WJ9ofB/bG3TndgQ79CVvldXyoumr0vEKDZtprmXW7x
m/E6eEtAmIFyvZ2z4AKOpKH/mhUh/8HuBYmebLwQhfBcZquirQ7fnCT4e082HX8M
gwIDAQABo4IHJTCCByEwCQYDVR0TBAIwADALBgNVHQ8EBAMCBeAwNQYDVR0RBC4w
LIILZXhhbXBsZS5jb22CB2NvbGxhdGWCFGFkZGl0aW9uYWxkb21haW4uY29tMIID
gAYLKwYBBAGDqHgFjFQEggNvAW1jk2Ry7iIRgVmiUgjkbprr6/JxGVuO7fPIC0df
hp+3F8AWAAAABKdPlrDNpplKbc0YTNVIcqRAOEFDtGdouyixcnqo46cUl1TFWEP4
tnAeSaVaPgVOuNJFqaRk44/DUVJHsMMy9RCoKLIcAidsu0JHaywfqrjO5a3QALyq
zeVt2/oxyyfbuZsVeAKRrKMJjaep7EstOhFpfXwlm5HrarOGCtSOSCRMultFRXS5
bhz75bMl0dg3d/yHzCX3F2xO/ERBoljWiLT18Ub+gtf8YMXsRFT5BnSdIHukQxQa
BKZaPFLOmhkO9hftGHGHWZWTZ2o+SZjtFs18bnf9ELODrSl1Xv2l9ph1FswuKXNX
IBogrKjWnM7SlfoM7zwwhR4+ocB9f7yn8h5vH8CYePbUw/G8lv+iOq33d7B9Ogfw
Z+aU3cxA7uCNBkkRX72hEzBL/4yAJ5qRPVjxzu/6Yfg6YwBzFATh/Au0xJvFnUbc
Kqn6QMQcGLbXcI3GKGT+Ij6F4tUr8PEC2AdOpbp99y2hW6qW+Ivk06XNLsdOrPXf
Q7rxQk9yu1VRrEMGM0tdkpBveEb/5L3mVWIND9ssQp2Dvgxr83rEPTdoOamD9tax
v3yMf+om+LkBpZyo/10MgO7/QcKK85H+82eJ0FVqTeb+0PiceQX64tpQPcRl0dr6
1+vt1R7cu8NGnSFXJ2sSbI3YXgx069ikHHHjpcyNZFscqXgCz4Y8QXrujQE6Uojb
wYOIsrUKMA1QLg8Ge1qrYGUbrEfa1ey5l++NC6/Qeegffo5EwZAio0FvZVhJsL58
M6cbmZw/hJQRJDunif8K1uD7L7RiG6JbtvMd2ve2Lo77Gu9iKlwS+4Z44+DiUcCz
8y6eiLud7l2dMaJl/xTBaH3YtLfgZCBk+vTSiLENZETvDZWMerZuKsuVebzVGeLB
8/fP3hhdRlwqsgGApQlBso8tAhJgnIEl5FnmohsRgSrbIH3YjzG+kLm79RqDAAdj
b2xsYXRlQwAABgEFZHVtbXkAc00NAiCuYricCbppJSPmp/hm9lPPnOiO7sfSDDEy
nxvew2w1ywICbnMHY29sbGF0ZQCSvgOoAcAwi6wAAHdJAgDHAA/8KJDdmmaUl0qG
8XS2nmv1xuMIflpkKaQytChk1INjAP5AQg8A/oCWmAACMIIDKwYLKwYBBAGDqHgF
jFUEggMaAbsAAARfNDQzBF90Y3AHY29sbGF0ZQAANAABAAAOEAAjAwEBWRWMifAt
12kt1sXY27F1DniyucozpmHKUonGGPQtjk8EXzQ0MwRfdGNwB2NvbGxhdGUAAC4A
AQAADhAAWwA0DQMAAA4QZbrfAGWfL4BzTQdjb2xsYXRlAGoXZbpDsBfQMOw7GckU
g07phWkGBg09p2jhbah7tLgB5mCwqZO0TdKBQxpq9pPcC0yupcVrOmWIANdbWGN6
2wIHY29sbGF0ZQAAMAABAAAOEABEAQEDDaqU5umgp8p0jYe1M17GOcRhK0q9SCDt
bWQ0PfGGy8812pGeRn5VeRKIZP0utQv4YkvEuDcz4aaGt7R9z4GwhOUHY29sbGF0
ZQAALgABAAAOEABbADANAQAADhBlut8AZZ8vgHNNB2NvbGxhdGUA3GjkpFeAb3CV
FjabdFvkuw/XGXRn1UYttmCVMVT9+x+0mekNDXOieQU2FY+qudWIJFipHAbmVFEu
AznS1BaeKgdjb2xsYXRlAAArAAEAAFRfACRzTQ0CrmK4nAm6aSUj5qf4ZvZTz5zo
ju7H0gwxMp8b3sNsNcsHY29sbGF0ZQAALgABAAAqLwBTACsNAQAAVGBlvC+5ZZdF
ue4QAFqY0vGd1TMPoi5A+9uJnrNkmM3pQXWENrJSk3ddhYQgT+Gzv7tAsXucmppO
Vqxg7TS6g7emKzQ1WeHC2ocGQ+0AADAAAQAAKi8ARAEBAw1P1xREnYz8zP2rpSxk
1j46ynK+P5S/62CutaQu09DCBT9e7liTSXTZKfm5rbEBB8RgjNE7q/mID4F6Mx4T
A0/hAAAwAAEAACovAEQBAAMNI5nPs6clFa1gnwn9IpVDGdJLfEONzgD1NcfuEwEI
VuIoHdZGgvVblsLNbRO+spW3nQYHg92svhy1HOjTiFBIsQAALgABAAAqLwBTADAN
AAAAKjBlvC+5ZZdFuYmPAPxMjvp6+UHfFSlCTf2fjXLTgDPwcmUUxwl7Jkik2i9B
hDRB7OeRlgcATYaydStHMMxs9QAwxOGntxTgmEcO0ZIwHQYDVR0OBBYEFBUkGesy
+FqDp9tgKrL9u26Pq6N5MA0GCSqGSIb3DQEBCwUAA4ICAQDZw/EK6/ckr9IhkXFC
THOxLmTRbTxzIx8QX7d02Y64DwNnHISd255o7gB5+cLdaR4LNbfCx9qzBXMDL+XA
5qVRAb6/jxXhuIvOR4dBcVduOpy/ZC1rLvMH+tZmNKOBVegA572Z3Io5MUay0MkT
pMQBqh459zplL/ypDrnXbx14YgEF6HJpF/LSxvAPsetrCYHXi01tEzTZjpHWD2oN
Qs3hGJDqM1r1ArCFOeCVRG7TENmcZjvH0u42NJOGomWfUYGJl/heaEK9VJx0NwxJ
/0MxxR2OwlGzHgseVXtPzGY6vQVdS8L8jjP6dQjdeFhBRrQaJEP6O2Dc1edUfaJW
4Q7AKGbXonV80+2ztG77HWlGSp8v9lY1od9vDCCrDBO88I8Z+onY3rtSwVcY30Dt
ofchy8Nm2SZ3lpE2eJ1QL2sXrRhCzDca/aCOZrVYBAwkYQo7J4aq8AChpzpEGedE
eNN9h/8LS7G/Gvnwb1p4nRd60h5GoJg21GChwVD9PrNOuFDFA/y7tplcyKTQcp1F
ASpUmEBvBtIhRe6+a+S3Xgg7WzvdCsGUaEWunGeX2CJss+hGrIXCIUaqTEHB/1jI
0BV7YyQIk7MUYVurjhcJA2oKUopZNxszKNOyQtmLGcocIcixp6vgOtaxbGG3wlLC
FsM6xLfiZEU7RteptYxDJ43VXA==
-----END CERTIFICATE-----
