Certificate:
    Data:
        Version: 3 (0x2)
        Serial Number: 18 (0x12)
        Signature Algorithm: sha256WithRSAEncryption
        Issuer: C=AU, ST=Some-State, O=Internet Widgits Pty Ltd
        Validity
            Not Before: Feb  3 15:57:34 2024 GMT
            Not After : Feb  2 15:57:34 2025 GMT
        Subject: CN=collate
        Subject Public Key Info:
            Public Key Algorithm: rsaEncryption
                Public-Key: (4096 bit)
                Modulus:
                    00:e8:bc:75:7f:da:5d:14:70:f9:a4:54:b6:59:19:
                    db:85:42:19:69:ad:c2:cd:39:2d:3c:f4:ec:df:ac:
                    c5:1f:ce:b5:c0:5e:d7:ab:fc:c7:90:01:27:2f:a5:
                    10:1e:eb:56:7c:77:91:2f:21:34:71:27:dc:dd:1e:
                    15:ca:d0:e4:ca:63:7e:09:47:a4:ff:03:58:50:ee:
                    12:a9:97:88:bd:96:60:9f:76:21:91:a3:4c:60:b4:
                    7f:08:f0:b2:0f:2f:51:2b:df:80:66:01:c4:11:ba:
                    51:40:32:eb:59:d7:18:d2:28:53:40:69:1b:35:88:
                    e2:8c:5a:43:f1:77:ed:3e:ee:31:ae:7e:e9:99:79:
                    f8:db:4f:a3:2e:f2:de:8c:ab:77:85:a0:91:e3:5a:
                    60:f3:9e:ab:b3:d8:36:4a:19:6e:41:c6:39:84:1d:
                    c4:82:9a:42:5d:8a:af:4a:fc:c8:0b:de:45:ce:56:
                    be:0a:71:71:1e:8d:b9:40:1c:85:0b:de:29:d3:69:
                    4e:cb:7f:98:f7:24:a3:50:69:e3:1d:90:ab:37:3d:
                    8f:58:d1:14:21:a9:1b:51:00:bd:88:42:d4:14:38:
                    47:0a:24:5d:2b:e6:f4:3e:95:8f:8e:22:3a:af:27:
                    0a:1e:0f:05:e7:8a:22:c3:4b:fb:ee:9e:a4:d1:65:
                    1d:15:d2:91:b3:6f:1a:ed:46:75:7f:c2:ad:e6:e3:
                    f8:79:9e:1b:05:64:51:89:08:a4:b6:ae:e2:66:94:
                    96:4f:0f:e7:07:d4:53:9b:b3:97:d8:55:05:f0:c6:
                    db:c1:99:8f:c0:29:d4:e9:f8:92:4a:94:43:2e:66:
                    e5:bf:66:af:60:4d:b3:65:ed:e5:39:9b:cb:09:7d:
                    2e:bd:7b:89:de:c5:3b:13:6f:9a:90:95:f2:1c:fd:
                    c7:bd:7a:a0:1a:12:9a:71:30:cc:19:02:f9:8c:93:
                    ab:84:05:dd:1c:63:cb:37:18:7e:6b:63:37:c6:75:
                    8f:57:d9:75:1c:90:e3:51:0b:a0:2c:48:f4:a9:b7:
                    77:5c:e6:d4:65:03:02:17:0d:62:04:95:39:25:65:
                    26:65:df:08:1e:5a:f8:ef:e7:56:f8:13:d1:db:73:
                    28:8c:84:0d:40:9f:04:4f:d5:73:4e:17:f5:89:f6:
                    87:c1:fd:b1:b7:4e:77:60:43:bf:42:56:f9:5d:5f:
                    2a:2e:9a:bd:2f:10:a0:d9:b6:9a:e6:5d:6e:f1:9b:
                    f1:3a:78:4b:40:98:81:72:bd:9d:b3:e0:02:8e:a4:
                    a1:ff:9a:15:21:ff:c1:ee:05:89:9e:6c:bc:10:85:
                    f0:5c:66:ab:a2:ad:0e:df:9c:24:f8:7b:4f:36:1d:
                    7f:0c:83
                Exponent: 65537 (0x10001)
        X509v3 extensions:
            X509v3 Subject Alternative Name: 
                DNS:collate, DNS:*.collate, DNS:certainly.fake.domain
            X509v3 Basic Constraints: 
                CA:FALSE
            X509v3 Key Usage: 
                Digital Signature, Non Repudiation, Key Encipherment, Data Encipherment
            1.3.6.1.4.1.54392.5.1620: 
                .i.Y..Y,..?1.........O_..K..p^.............qx.....{x....Z..=x.4N............G_...k..b..mv.Z..z...@neho.A..[..........@w...}y.......I...\....w..........J.gQ...%..eH...#.fM.../.S(w..s....-.].'..!.....eb.n....d5^-HuZ..$..../E..a........P17}..:m.....(.....n......K).....B....4.....L.-..x.h..E$.'..+....co."...9L0.,.dx..F..r..u!......._.....t...MN........'
:..k..<.O....`$.\...6.,.2t.ZqL.-.V....Y....0...5.....t!G.....Xj.!.78..Dq-...|.....n.8..F.z...V.b.m...+.b.w..p.....>...]a.e...\.6@E(L......lC..*.....<.ML_R..$U..w...<.Y!W'k.l..^.t....q....d[..x...<Az...:R.......
0P...{Z.`e..G.........@...M:6.
.....W..1..H...H..A.;...
.../.b..[...........b*\...x...Q.........].1.e...h}....d d.....dD...z.n*..y..........]F\*.....A..-..`..%.Y.....*. }..1.........collateC.....dummy.sM. .b....i%#...f.S........12....l5...ns.collate.......0....wI......(...f..J..t..k....~Zd).2.(d..c..@B........
            1.3.6.1.4.1.54392.5.1621: 
                ....._443._tcp.collate..4.....,.#...Y....-.i-.....u.x...3.a.R....-.O._443._tcp.collate..4.....,.#..........i-.....u.x...3.a.R....-.O._443._tcp.collate........,.[.4....,e.T.e...sM.collate.Zl.5...o?........D..A....'m..............RG^ M...b!v .b.Wr.......collate..0.......D..........t...3^.9.a+J.H .md4=....5...F~Uy..d.....bK..73.....}......collate..........[.0.....e.T.e...sM.collate.......L`^?.....&"..5..b.....8WC...`].....JQp..).+...|......3.1Z..collate..+....T_.$sM..b....i%#...f.S........12....l5..collate.......*/.S.+...T`e...e............t.oA.h..py...w..#_\...Xu.1V..<'. .i`a$.p...._.!..k...-4`eD..0....*0.D...#....%..`...".C..K|C....5.....V.(..F..[...m..................PH...0....*0.D...O..D.......,d.>:.r.?...`........?^.X.It.).......`..;.....z3...O........*0.S.0...*0e...e..........2.'..xq.<[.j..e|..0...lP+..c...8.C9._...O.....@...r...[...V{
            X509v3 Subject Key Identifier: 
                15:24:19:EB:32:F8:5A:83:A7:DB:60:2A:B2:FD:BB:6E:8F:AB:A3:79
    Signature Algorithm: sha256WithRSAEncryption
    Signature Value:
        5d:e8:3f:4f:a2:26:d4:4f:92:99:dc:79:9d:11:c8:01:24:b8:
        58:46:cb:b6:4b:df:8e:81:a2:4d:b7:fa:0a:93:23:69:df:d0:
        88:ec:41:6f:31:4b:5a:bb:3c:be:96:0f:e8:5f:d2:0e:67:0f:
        3b:af:07:7e:b2:e1:a1:41:11:a7:aa:f8:de:06:02:be:e8:1b:
        8a:64:e0:7b:dc:84:8c:38:cc:6b:c5:7d:26:cc:3c:eb:c4:18:
        2b:b5:c0:6a:5e:c7:1d:0e:53:fc:e2:d9:49:ee:08:3f:c5:f4:
        c3:fe:11:ae:b8:15:7f:d9:d2:cd:c5:d7:fe:9d:52:c9:f8:ed:
        36:43:95:5c:d2:c3:06:2d:bf:dd:30:8f:0c:e9:18:68:68:fe:
        b6:b9:e5:8b:48:6d:0c:78:47:68:49:cd:13:46:e2:c1:e8:c5:
        93:a1:76:10:17:32:b8:da:74:80:a0:ae:88:71:e0:db:eb:c6:
        00:e4:8f:52:18:85:b1:68:ca:20:f0:f9:cc:9f:e4:7c:b7:37:
        c4:8f:0d:42:04:aa:a9:73:87:54:bc:f2:96:c5:43:51:ee:3e:
        44:69:41:c3:61:09:64:95:0e:6f:71:dd:fd:6d:59:17:0e:21:
        04:a4:29:e2:97:3e:95:51:1e:7d:f9:fa:a3:a7:9c:0c:70:8b:
        df:50:76:3d:1a:30:59:6e:cf:18:19:eb:50:b2:c8:e3:56:7d:
        5e:bb:8a:75:00:be:93:32:95:aa:11:3d:03:08:72:e6:f8:79:
        b0:e0:53:3d:de:74:71:1a:6e:6f:11:bc:a4:f6:50:a6:9a:e7:
        87:9a:08:39:2b:9c:f2:6b:9d:84:b3:fd:5d:e4:b9:f6:9b:d3:
        96:53:f5:01:00:cc:12:f3:14:0f:c3:68:60:b1:86:72:b3:0d:
        f1:43:ae:2d:6b:ea:72:fb:6f:0a:87:b0:74:d4:6a:3c:dd:58:
        ca:70:48:e1:7a:f1:03:80:03:02:95:55:68:64:17:00:89:ae:
        ea:9b:c6:43:cb:22:b8:7c:ee:10:7c:e4:52:91:b9:91:b5:22:
        5a:51:d0:35:87:c3:1f:6c:b3:b2:71:e2:ba:7c:e8:64:0b:70:
        3a:2a:93:6d:5f:52:12:ec:59:56:fa:13:41:f2:c7:30:f5:52:
        96:2e:84:fd:16:2c:57:2b:6b:77:db:3a:f4:2b:34:17:cb:5d:
        ee:8f:21:86:ae:7d:e4:a4:e4:c7:9c:ba:bd:83:3e:ea:f3:63:
        cf:d9:06:96:2f:cc:5e:f9:6c:d7:d8:bd:97:10:6d:4d:41:f0:
        74:31:ee:c6:f4:21:b2:b5:75:37:7c:21:52:1e:42:c9:96:d1:
        a5:38:04:83:fa:3d:dd:78
-----BEGIN CERTIFICATE-----
MIIMODCCCiCgAwIBAgIBEjANBgkqhkiG9w0BAQsFADBFMQswCQYDVQQGEwJBVTET
MBEGA1UECAwKU29tZS1TdGF0ZTEhMB8GA1UECgwYSW50ZXJuZXQgV2lkZ2l0cyBQ
dHkgTHRkMB4XDTI0MDIwMzE1NTczNFoXDTI1MDIwMjE1NTczNFowEjEQMA4GA1UE
AwwHY29sbGF0ZTCCAiIwDQYJKoZIhvcNAQEBBQADggIPADCCAgoCggIBAOi8dX/a
XRRw+aRUtlkZ24VCGWmtws05LTz07N+sxR/OtcBe16v8x5ABJy+lEB7rVnx3kS8h
NHEn3N0eFcrQ5MpjfglHpP8DWFDuEqmXiL2WYJ92IZGjTGC0fwjwsg8vUSvfgGYB
xBG6UUAy61nXGNIoU0BpGzWI4oxaQ/F37T7uMa5+6Zl5+NtPoy7y3oyrd4WgkeNa
YPOeq7PYNkoZbkHGOYQdxIKaQl2Kr0r8yAveRc5WvgpxcR6NuUAchQveKdNpTst/
mPcko1Bp4x2Qqzc9j1jRFCGpG1EAvYhC1BQ4RwokXSvm9D6Vj44iOq8nCh4PBeeK
IsNL++6epNFlHRXSkbNvGu1GdX/Crebj+HmeGwVkUYkIpLau4maUlk8P5wfUU5uz
l9hVBfDG28GZj8Ap1On4kkqUQy5m5b9mr2BNs2Xt5Tmbywl9Lr17id7FOxNvmpCV
8hz9x716oBoSmnEwzBkC+YyTq4QF3RxjyzcYfmtjN8Z1j1fZdRyQ41ELoCxI9Km3
d1zm1GUDAhcNYgSVOSVlJmXfCB5a+O/nVvgT0dtzKIyEDUCfBE/Vc04X9Yn2h8H9
sbdOd2BDv0JW+V1fKi6avS8QoNm2muZdbvGb8Tp4S0CYgXK9nbPgAo6kof+aFSH/
we4FiZ5svBCF8Fxmq6KtDt+cJPh7TzYdfwyDAgMBAAGjggdkMIIHYDA0BgNVHREE
LTArggdjb2xsYXRlggkqLmNvbGxhdGWCFWNlcnRhaW5seS5mYWtlLmRvbWFpbjAJ
BgNVHRMEAjAAMAsGA1UdDwQEAwIE8DCCA4AGCysGAQQBg6h4BYxUBIIDbwFpC1m5
llksHR8/Mersfx3EFtfl5k9frrxLHfpwXvUGtRfAFgAAAATaz5BxeKa0v8y8e3jw
LrC8WvTuPXiaNE6zE8MerfDIf6GTtolHX5TloGsRDmKZ/2122FqAFHrmgYFAbmVo
b8BBHZxbqxCej6K5vq+/rEB336b9fXnbsuqp+ID5Saqyr1z/8qgN73f5mt0P9Ayi
5/0QSp5nUR3tECW0lmVIoLKsI4dmTa7kwy+tUyh3hMJzEh/Zki2jXaMngxohwPz0
lZFlYsduqLPyhWQ1Xi1IdVrdqCThpdofL0WWgWH92X+7rrDRCVAxN320kTptjvTq
lRko6PH32qNuwubzv5fjSykIjYi19kK7yaazNN7f6AXVTJgt8sJ4HWi6wUUknCef
miucnJSzY2/YIhS82DlMMIQsuWR45pNGvRty2sJ1IQQYrrWn/dZfxZIOu450yhfs
TU7w64jfwxcTlCcKOguIa5cQPMJP/rXi6WAk8Vz72bw2wyytMnSYWnFMzC2FVgDR
0IpZ2a2izjDq2uk1hIqZBOJ0IUfXAeq94Vhq7SH2NziHz0RxLfWpjXzt4g+NAW5/
OBURRqt6/dieVp1ipW0frI4rw2Ked54ccPuLpNblPvXPlV1hD2WF78ZcxzZARShM
mhLXB87LbEP3xSq3svILgzwLTUxfUuSnJFX50HfeDgQ8kFkhVydrEmyN2F4MdOvY
pBxx46XMjWRbHKl4As+GPEF67o0BOlKI28GDiLK1CjANUC4PBntaq2BlG6xH2tXs
uZfv95isQJGZ5E06NvwKsecV1O1XBPwx+thIBwutSAnoQRM7p4n/Ctbg+y+0Yhui
W7bzHdr3ti6O+xrvYipcEvuGeOPg4lHAs/Munoi7ne5dnTGiZf8UwWh92LS34GQg
ZPr00oixDWRE7w2VjHq2birLlXm81RniwfP3z94YXUZcKrIBgKUJQbKPLQISYJyB
JeRZ5qIbEYEq2yB92I8xvpC5u/UagwAHY29sbGF0ZUMAAAYBBWR1bW15AHNNDQIg
rmK4nAm6aSUj5qf4ZvZTz5zoju7H0gwxMp8b3sNsNcsCAm5zB2NvbGxhdGUAkr4D
qAHAMIusAAB3SQIAxwAP/CiQ3ZpmlJdKhvF0tp5r9cbjCH5aZCmkMrQoZNSDYwD+
QEIPAP6AlpgAAjCCA2sGCysGAQQBg6h4BYxVBIIDWgG7AAAEXzQ0MwRfdGNwB2Nv
bGxhdGUAADQAAQAAASwAIwMBAVkVjInwLddpLdbF2NuxdQ54srnKM6ZhylKJxhj0
LY5PBF80NDMEX3RjcAdjb2xsYXRlAAA0AAEAAAEsACMDAQHerb7v3q3XaS3Wxdjb
sXUOeLK5yjOmYcpSicYY9C2OTwRfNDQzBF90Y3AHY29sbGF0ZQAALgABAAABLABb
ADQNAwAAASxlzVQAZbGkgHNNB2NvbGxhdGUAWmyrNYV/D28/Hu/4D67m4vJEmq1B
qYAQhCdt5fkFnwCS7/iHw/v/kqJSR14gTauFx2IhdiARYrVXcq/S+i6C1wdjb2xs
YXRlAAAwAAEAAA4QAEQBAQMNqpTm6aCnynSNh7UzXsY5xGErSr1IIO1tZDQ98YbL
zzXakZ5GflV5Eohk/S61C/hiS8S4NzPhpoa3tH3PgbCE5Qdjb2xsYXRlAAAuAAEA
AA4QAFsAMA0BAAAOEGXNVABlsaSAc00HY29sbGF0ZQCDoJ3jDNdMYF4/xq+5+7Mm
Ih4ANeK9YriGyqH9OFdDjL8cYF0dnxu4oUpRcOC9KZ8rgReSfAyDja4YvTONMVra
B2NvbGxhdGUAACsAAQAAVF8AJHNNDQKuYricCbppJSPmp/hm9lPPnOiO7sfSDDEy
nxvew2w1ywdjb2xsYXRlAAAuAAEAACovAFMAKw0BAABUYGXQ1hJlq+wS7hAAyvQu
DrmQdN9vQblo7bhweaetFHfg/SNfXAOf41h1ADFWuos8J/kghGlgYSTmcNmosoRf
oyHSyGvmmrQtNGBlRAAAMAABAAAqMABEAQADDSOZz7OnJRWtYJ8J/SKVQxnSS3xD
jc4A9TXH7hMBCFbiKB3WRoL1W5bCzW0TvrKVt50GB4PdrL4ctRzo04hQSLEAADAA
AQAAKjAARAEBAw1P1xREnYz8zP2rpSxk1j46ynK+P5S/62CutaQu09DCBT9e7liT
SXTZKfm5rbEBB8RgjNE7q/mID4F6Mx4TA0/hAAAuAAEAACowAFMAMA0AAAAqMGXQ
1hNlq+wTiY8A3rKUATIeJ8j+eHHLPFuKaojfZXynwzD90PNsUCu8k2Pp8/o4CUM5
wF/ssudPf+u/la1ALunVchqy2VvymwhWezAdBgNVHQ4EFgQUFSQZ6zL4WoOn22Aq
sv27bo+ro3kwDQYJKoZIhvcNAQELBQADggIBAF3oP0+iJtRPkpnceZ0RyAEkuFhG
y7ZL346Bok23+gqTI2nf0IjsQW8xS1q7PL6WD+hf0g5nDzuvB36y4aFBEaeq+N4G
Ar7oG4pk4HvchIw4zGvFfSbMPOvEGCu1wGpexx0OU/zi2UnuCD/F9MP+Ea64FX/Z
0s3F1/6dUsn47TZDlVzSwwYtv90wjwzpGGho/ra55YtIbQx4R2hJzRNG4sHoxZOh
dhAXMrjadICgrohx4NvrxgDkj1IYhbFoyiDw+cyf5Hy3N8SPDUIEqqlzh1S88pbF
Q1HuPkRpQcNhCWSVDm9x3f1tWRcOIQSkKeKXPpVRHn35+qOnnAxwi99Qdj0aMFlu
zxgZ61CyyONWfV67inUAvpMylaoRPQMIcub4ebDgUz3edHEabm8RvKT2UKaa54ea
CDkrnPJrnYSz/V3kufab05ZT9QEAzBLzFA/DaGCxhnKzDfFDri1r6nL7bwqHsHTU
ajzdWMpwSOF68QOAAwKVVWhkFwCJruqbxkPLIrh87hB85FKRuZG1IlpR0DWHwx9s
s7Jx4rp86GQLcDoqk21fUhLsWVb6E0HyxzD1UpYuhP0WLFcra3fbOvQrNBfLXe6P
IYaufeSk5Mecur2DPurzY8/ZBpYvzF75bNfYvZcQbU1B8HQx7sb0IbK1dTd8IVIe
QsmW0aU4BIP6Pd14
-----END CERTIFICATE-----
